---
triple:          'arm64-apple-darwin'
binary-path:     '/Users/akihiro/Desktop/C++practice/2-3-2'
relocations:
  - { offset: 0x1B195, size: 0x8, addend: 0x0, symName: __ZStL8__ioinit, symObjAddr: 0x82C28, symBinAddr: 0x10000C000, symSize: 0x0 }
  - { offset: 0x1B72F, size: 0x8, addend: 0x0, symName: __ZNSt11__copy_moveILb0ELb0ESt26random_access_iterator_tagE12__assign_oneIcKcEEvPT_PT0_, symObjAddr: 0x2498, symBinAddr: 0x1000056C8, symSize: 0x28 }
  - { offset: 0x1B779, size: 0x8, addend: 0x0, symName: __ZNSt11__copy_moveILb0ELb1ESt26random_access_iterator_tagE8__copy_mIKccEEPT0_PT_S7_S5_, symObjAddr: 0x2414, symBinAddr: 0x100005644, symSize: 0x84 }
  - { offset: 0x1B7E3, size: 0x8, addend: 0x0, symName: __ZSt14__copy_move_a2ILb0EPKcPcET1_T0_S4_S3_, symObjAddr: 0x23E8, symBinAddr: 0x100005618, symSize: 0x2C }
  - { offset: 0x1B84B, size: 0x8, addend: 0x0, symName: __ZNK9__gnu_cxx17__normal_iteratorIPKcSt6vectorIcSaIcEEE4baseEv, symObjAddr: 0x23D4, symBinAddr: 0x100005604, symSize: 0x14 }
  - { offset: 0x1B874, size: 0x8, addend: 0x0, symName: __ZNK9__gnu_cxx17__normal_iteratorIPKSt6vectorIcSaIcEES1_IS3_SaIS3_EEE4baseEv, symObjAddr: 0x23C0, symBinAddr: 0x1000055F0, symSize: 0x14 }
  - { offset: 0x1B899, size: 0x8, addend: 0x0, symName: __ZSt12__niter_wrapIPcET_RKS1_S1_, symObjAddr: 0x23A8, symBinAddr: 0x1000055D8, symSize: 0x18 }
  - { offset: 0x1B8D3, size: 0x8, addend: 0x0, symName: __ZSt14__copy_move_a1ILb0EPKcPcET1_T0_S4_S3_, symObjAddr: 0x237C, symBinAddr: 0x1000055AC, symSize: 0x2C }
  - { offset: 0x1B937, size: 0x8, addend: 0x0, symName: __ZSt12__niter_baseIPcET_S1_, symObjAddr: 0x2368, symBinAddr: 0x100005598, symSize: 0x14 }
  - { offset: 0x1B968, size: 0x8, addend: 0x0, symName: __ZSt12__niter_baseIPKcSt6vectorIcSaIcEEET_N9__gnu_cxx17__normal_iteratorIS5_T0_EE, symObjAddr: 0x2348, symBinAddr: 0x100005578, symSize: 0x20 }
  - { offset: 0x1B9A6, size: 0x8, addend: 0x0, symName: __ZNK9__gnu_cxx17__normal_iteratorIPKSt6vectorIcSaIcEES1_IS3_SaIS3_EEEdeEv, symObjAddr: 0x2330, symBinAddr: 0x100005560, symSize: 0x18 }
  - { offset: 0x1B9CF, size: 0x8, addend: 0x0, symName: __ZN9__gnu_cxx17__normal_iteratorIPKSt6vectorIcSaIcEES1_IS3_SaIS3_EEEppEv, symObjAddr: 0x2308, symBinAddr: 0x100005538, symSize: 0x28 }
  - { offset: 0x1B9FA, size: 0x8, addend: 0x0, symName: __ZN9__gnu_cxxneIPKSt6vectorIcSaIcEES1_IS3_SaIS3_EEEEbRKNS_17__normal_iteratorIT_T0_EESD_, symObjAddr: 0x22C4, symBinAddr: 0x1000054F4, symSize: 0x44 }
  - { offset: 0x1BA44, size: 0x8, addend: 0x0, symName: __ZSt13__copy_move_aILb0EN9__gnu_cxx17__normal_iteratorIPKcSt6vectorIcSaIcEEEEPcET1_T0_SA_S9_, symObjAddr: 0x2264, symBinAddr: 0x100005494, symSize: 0x60 }
  - { offset: 0x1BAA8, size: 0x8, addend: 0x0, symName: __ZSt12__miter_baseIN9__gnu_cxx17__normal_iteratorIPKcSt6vectorIcSaIcEEEEET_S8_, symObjAddr: 0x2250, symBinAddr: 0x100005480, symSize: 0x14 }
  - { offset: 0x1BAD9, size: 0x8, addend: 0x0, symName: __ZSt16__do_uninit_copyIN9__gnu_cxx17__normal_iteratorIPKSt6vectorIcSaIcEES2_IS4_SaIS4_EEEEPS4_ET0_T_SC_SB_, symObjAddr: 0x21A8, symBinAddr: 0x1000053D8, symSize: 0xA8 }
  - { offset: 0x1BB43, size: 0x8, addend: 0x0, symName: __ZSt4copyIN9__gnu_cxx17__normal_iteratorIPKcSt6vectorIcSaIcEEEEPcET0_T_SA_S9_, symObjAddr: 0x2160, symBinAddr: 0x100005390, symSize: 0x48 }
  - { offset: 0x1BB9D, size: 0x8, addend: 0x0, symName: __ZNSt20__uninitialized_copyILb0EE13__uninit_copyIN9__gnu_cxx17__normal_iteratorIPKSt6vectorIcSaIcEES4_IS6_SaIS6_EEEEPS6_EET0_T_SE_SD_, symObjAddr: 0x2134, symBinAddr: 0x100005364, symSize: 0x2C }
  - { offset: 0x1BBF7, size: 0x8, addend: 0x0, symName: __ZNSt20__uninitialized_copyILb1EE13__uninit_copyIN9__gnu_cxx17__normal_iteratorIPKcSt6vectorIcSaIcEEEEPcEET0_T_SC_SB_, symObjAddr: 0x2108, symBinAddr: 0x100005338, symSize: 0x2C }
  - { offset: 0x1BC51, size: 0x8, addend: 0x0, symName: __ZSt18uninitialized_copyIN9__gnu_cxx17__normal_iteratorIPKSt6vectorIcSaIcEES2_IS4_SaIS4_EEEEPS4_ET0_T_SC_SB_, symObjAddr: 0x20D4, symBinAddr: 0x100005304, symSize: 0x34 }
  - { offset: 0x1BCF8, size: 0x8, addend: 0x0, symName: __ZN9__gnu_cxx17__normal_iteratorIPKSt6vectorIcSaIcEES1_IS3_SaIS3_EEEC1ERKS5_, symObjAddr: 0x20AC, symBinAddr: 0x1000052DC, symSize: 0x28 }
  - { offset: 0x1BD38, size: 0x8, addend: 0x0, symName: __ZSt18uninitialized_copyIN9__gnu_cxx17__normal_iteratorIPKcSt6vectorIcSaIcEEEEPcET0_T_SA_S9_, symObjAddr: 0x2070, symBinAddr: 0x1000052A0, symSize: 0x3C }
  - { offset: 0x1BDDF, size: 0x8, addend: 0x0, symName: __ZN9__gnu_cxx17__normal_iteratorIPKcSt6vectorIcSaIcEEEC1ERKS2_, symObjAddr: 0x2048, symBinAddr: 0x100005278, symSize: 0x28 }
  - { offset: 0x1BE09, size: 0x8, addend: 0x0, symName: __ZSt22__uninitialized_copy_aIN9__gnu_cxx17__normal_iteratorIPKSt6vectorIcSaIcEES2_IS4_SaIS4_EEEEPS4_S4_ET0_T_SC_SB_RSaIT1_E, symObjAddr: 0x2018, symBinAddr: 0x100005248, symSize: 0x30 }
  - { offset: 0x1BE79, size: 0x8, addend: 0x0, symName: __ZNKSt6vectorIS_IcSaIcEESaIS1_EE3endEv, symObjAddr: 0x1FF0, symBinAddr: 0x100005220, symSize: 0x28 }
  - { offset: 0x1BEA2, size: 0x8, addend: 0x0, symName: __ZNKSt6vectorIS_IcSaIcEESaIS1_EE5beginEv, symObjAddr: 0x1FCC, symBinAddr: 0x1000051FC, symSize: 0x24 }
  - { offset: 0x1BEE0, size: 0x8, addend: 0x0, symName: __ZNKSt12_Vector_baseISt6vectorIcSaIcEESaIS2_EE19_M_get_Tp_allocatorEv, symObjAddr: 0x1FB8, symBinAddr: 0x1000051E8, symSize: 0x14 }
  - { offset: 0x1BF05, size: 0x8, addend: 0x0, symName: __ZSt22__uninitialized_copy_aIN9__gnu_cxx17__normal_iteratorIPKcSt6vectorIcSaIcEEEEPccET0_T_SA_S9_RSaIT1_E, symObjAddr: 0x1F88, symBinAddr: 0x1000051B8, symSize: 0x30 }
  - { offset: 0x1BF75, size: 0x8, addend: 0x0, symName: __ZNKSt6vectorIcSaIcEE3endEv, symObjAddr: 0x1F60, symBinAddr: 0x100005190, symSize: 0x28 }
  - { offset: 0x1BF9E, size: 0x8, addend: 0x0, symName: __ZNKSt6vectorIcSaIcEE5beginEv, symObjAddr: 0x1F3C, symBinAddr: 0x10000516C, symSize: 0x24 }
  - { offset: 0x1BFC7, size: 0x8, addend: 0x0, symName: __ZNKSt12_Vector_baseIcSaIcEE19_M_get_Tp_allocatorEv, symObjAddr: 0x1F28, symBinAddr: 0x100005158, symSize: 0x14 }
  - { offset: 0x1BFEC, size: 0x8, addend: 0x0, symName: __ZSt9__fill_a1IcEN9__gnu_cxx11__enable_ifIXsrSt9__is_byteIT_E7__valueEvE6__typeEPS3_S7_RKS3_, symObjAddr: 0x1ECC, symBinAddr: 0x1000050FC, symSize: 0x5C }
  - { offset: 0x1C09D, size: 0x8, addend: 0x0, symName: __ZNSt6vectorIS_IcSaIcEESaIS1_EEC1ERKS3_, symObjAddr: 0x1DB8, symBinAddr: 0x100004FE8, symSize: 0x114 }
  - { offset: 0x1C1B1, size: 0x8, addend: 0x0, symName: __ZSt7forwardIRKSt6vectorIS0_IcSaIcEESaIS2_EEEOT_RNSt16remove_referenceIS7_E4typeE, symObjAddr: 0x1DA4, symBinAddr: 0x100004FD4, symSize: 0x14 }
  - { offset: 0x1C20F, size: 0x8, addend: 0x0, symName: __ZNSt6vectorIcSaIcEEC1ERKS1_, symObjAddr: 0x1C90, symBinAddr: 0x100004EC0, symSize: 0x114 }
  - { offset: 0x1C323, size: 0x8, addend: 0x0, symName: __ZSt7forwardIRKSt6vectorIcSaIcEEEOT_RNSt16remove_referenceIS5_E4typeE, symObjAddr: 0x1C7C, symBinAddr: 0x100004EAC, symSize: 0x14 }
  - { offset: 0x1C354, size: 0x8, addend: 0x0, symName: __ZSt8__fill_aIPccEvT_S1_RKT0_, symObjAddr: 0x1C4C, symBinAddr: 0x100004E7C, symSize: 0x30 }
  - { offset: 0x1C3AE, size: 0x8, addend: 0x0, symName: __ZSt10_ConstructISt6vectorIS0_IcSaIcEESaIS2_EEJRKS4_EEvPT_DpOT0_, symObjAddr: 0x1BD0, symBinAddr: 0x100004E00, symSize: 0x7C }
  - { offset: 0x1C3F9, size: 0x8, addend: 0x0, symName: __ZSt10_ConstructISt6vectorIcSaIcEEJRKS2_EEvPT_DpOT0_, symObjAddr: 0x1B54, symBinAddr: 0x100004D84, symSize: 0x7C }
  - { offset: 0x1C444, size: 0x8, addend: 0x0, symName: __ZSt10__fill_n_aIPcmcET_S1_T0_RKT1_St26random_access_iterator_tag, symObjAddr: 0x1AF8, symBinAddr: 0x100004D28, symSize: 0x5C }
  - { offset: 0x1C4B0, size: 0x8, addend: 0x0, symName: __ZSt18__do_uninit_fill_nIPSt6vectorIS0_IcSaIcEESaIS2_EEmS4_ET_S6_T0_RKT1_, symObjAddr: 0x1A68, symBinAddr: 0x100004C98, symSize: 0x90 }
  - { offset: 0x1C527, size: 0x8, addend: 0x0, symName: __ZNSt15__new_allocatorISt6vectorIS0_IcSaIcEESaIS2_EEE8allocateEmPKv, symObjAddr: 0x19D8, symBinAddr: 0x100004C08, symSize: 0x90 }
  - { offset: 0x1C5AE, size: 0x8, addend: 0x0, symName: __ZSt18__do_uninit_fill_nIPSt6vectorIcSaIcEEmS2_ET_S4_T0_RKT1_, symObjAddr: 0x1948, symBinAddr: 0x100004B78, symSize: 0x90 }
  - { offset: 0x1C625, size: 0x8, addend: 0x0, symName: __ZNSt15__new_allocatorISt6vectorIcSaIcEEE8allocateEmPKv, symObjAddr: 0x18B8, symBinAddr: 0x100004AE8, symSize: 0x90 }
  - { offset: 0x1C6AC, size: 0x8, addend: 0x0, symName: __ZSt6fill_nIPcmcET_S1_T0_RKT1_, symObjAddr: 0x1870, symBinAddr: 0x100004AA0, symSize: 0x48 }
  - { offset: 0x1C730, size: 0x8, addend: 0x0, symName: __ZSt10_ConstructIcJEEvPT_DpOT0_, symObjAddr: 0x1844, symBinAddr: 0x100004A74, symSize: 0x2C }
  - { offset: 0x1C76B, size: 0x8, addend: 0x0, symName: __ZSt8_DestroyISt6vectorIS0_IcSaIcEESaIS2_EEEvPT_, symObjAddr: 0x1824, symBinAddr: 0x100004A54, symSize: 0x20 }
  - { offset: 0x1C79C, size: 0x8, addend: 0x0, symName: __ZSt11__addressofISt6vectorIS0_IcSaIcEESaIS2_EEEPT_RS5_, symObjAddr: 0x1810, symBinAddr: 0x100004A40, symSize: 0x14 }
  - { offset: 0x1C7CD, size: 0x8, addend: 0x0, symName: __ZNSt22__uninitialized_fill_nILb0EE15__uninit_fill_nIPSt6vectorIS2_IcSaIcEESaIS4_EEmS6_EET_S8_T0_RKT1_, symObjAddr: 0x17E4, symBinAddr: 0x100004A14, symSize: 0x2C }
  - { offset: 0x1C834, size: 0x8, addend: 0x0, symName: __ZNSt15__new_allocatorISt6vectorIS0_IcSaIcEESaIS2_EEE10deallocateEPS4_m, symObjAddr: 0x17A8, symBinAddr: 0x1000049D8, symSize: 0x3C }
  - { offset: 0x1C8B3, size: 0x8, addend: 0x0, symName: __ZSt8_DestroyISt6vectorIcSaIcEEEvPT_, symObjAddr: 0x1788, symBinAddr: 0x1000049B8, symSize: 0x20 }
  - { offset: 0x1C8E4, size: 0x8, addend: 0x0, symName: __ZSt11__addressofISt6vectorIcSaIcEEEPT_RS3_, symObjAddr: 0x1774, symBinAddr: 0x1000049A4, symSize: 0x14 }
  - { offset: 0x1C915, size: 0x8, addend: 0x0, symName: __ZNSt22__uninitialized_fill_nILb0EE15__uninit_fill_nIPSt6vectorIcSaIcEEmS4_EET_S6_T0_RKT1_, symObjAddr: 0x1748, symBinAddr: 0x100004978, symSize: 0x2C }
  - { offset: 0x1C97C, size: 0x8, addend: 0x0, symName: __ZNSt15__new_allocatorISt6vectorIcSaIcEEE10deallocateEPS2_m, symObjAddr: 0x170C, symBinAddr: 0x10000493C, symSize: 0x3C }
  - { offset: 0x1C9FB, size: 0x8, addend: 0x0, symName: __ZNSt27__uninitialized_default_n_1ILb1EE18__uninit_default_nIPcmEET_S3_T0_, symObjAddr: 0x16A8, symBinAddr: 0x1000048D8, symSize: 0x64 }
  - { offset: 0x1CA88, size: 0x8, addend: 0x0, symName: __ZNSt15__new_allocatorIcE8allocateEmPKv, symObjAddr: 0x1644, symBinAddr: 0x100004874, symSize: 0x64 }
  - { offset: 0x1CB0F, size: 0x8, addend: 0x0, symName: __ZSt11__addressofIcEPT_RS0_, symObjAddr: 0x1630, symBinAddr: 0x100004860, symSize: 0x14 }
  - { offset: 0x1CB40, size: 0x8, addend: 0x0, symName: __ZNSt12_Destroy_auxILb0EE9__destroyIPSt6vectorIS2_IcSaIcEESaIS4_EEEEvT_S8_, symObjAddr: 0x15E4, symBinAddr: 0x100004814, symSize: 0x4C }
  - { offset: 0x1CB81, size: 0x8, addend: 0x0, symName: __ZSt20uninitialized_fill_nIPSt6vectorIS0_IcSaIcEESaIS2_EEmS4_ET_S6_T0_RKT1_, symObjAddr: 0x15B4, symBinAddr: 0x1000047E4, symSize: 0x30 }
  - { offset: 0x1CC2A, size: 0x8, addend: 0x0, symName: __ZNSt12_Vector_baseISt6vectorIS0_IcSaIcEESaIS2_EESaIS4_EE11_M_allocateEm, symObjAddr: 0x1564, symBinAddr: 0x100004794, symSize: 0x50 }
  - { offset: 0x1CCAB, size: 0x8, addend: 0x0, symName: __ZNSt12_Vector_baseISt6vectorIS0_IcSaIcEESaIS2_EESaIS4_EE17_Vector_impl_dataC2Ev, symObjAddr: 0x1538, symBinAddr: 0x100004768, symSize: 0x2C }
  - { offset: 0x1CCFD, size: 0x8, addend: 0x0, symName: __ZNSt12_Destroy_auxILb0EE9__destroyIPSt6vectorIcSaIcEEEEvT_S6_, symObjAddr: 0x14EC, symBinAddr: 0x10000471C, symSize: 0x4C }
  - { offset: 0x1CD3E, size: 0x8, addend: 0x0, symName: __ZSt20uninitialized_fill_nIPSt6vectorIcSaIcEEmS2_ET_S4_T0_RKT1_, symObjAddr: 0x14BC, symBinAddr: 0x1000046EC, symSize: 0x30 }
  - { offset: 0x1CDE7, size: 0x8, addend: 0x0, symName: __ZNSt12_Vector_baseISt6vectorIcSaIcEESaIS2_EE11_M_allocateEm, symObjAddr: 0x146C, symBinAddr: 0x10000469C, symSize: 0x50 }
  - { offset: 0x1CE68, size: 0x8, addend: 0x0, symName: __ZNSt12_Vector_baseISt6vectorIcSaIcEESaIS2_EE17_Vector_impl_dataC2Ev, symObjAddr: 0x1440, symBinAddr: 0x100004670, symSize: 0x2C }
  - { offset: 0x1CEBA, size: 0x8, addend: 0x0, symName: __ZNSt12_Destroy_auxILb1EE9__destroyIPcEEvT_S3_, symObjAddr: 0x1428, symBinAddr: 0x100004658, symSize: 0x18 }
  - { offset: 0x1CEED, size: 0x8, addend: 0x0, symName: __ZSt25__uninitialized_default_nIPcmET_S1_T0_, symObjAddr: 0x13FC, symBinAddr: 0x10000462C, symSize: 0x2C }
  - { offset: 0x1CF4C, size: 0x8, addend: 0x0, symName: __ZNSt12_Vector_baseIcSaIcEE11_M_allocateEm, symObjAddr: 0x13AC, symBinAddr: 0x1000045DC, symSize: 0x50 }
  - { offset: 0x1CFCD, size: 0x8, addend: 0x0, symName: __ZNSt12_Vector_baseIcSaIcEE17_Vector_impl_dataC2Ev, symObjAddr: 0x1380, symBinAddr: 0x1000045B0, symSize: 0x2C }
  - { offset: 0x1D02C, size: 0x8, addend: 0x0, symName: __ZNSt15__new_allocatorIcE10deallocateEPcm, symObjAddr: 0x1358, symBinAddr: 0x100004588, symSize: 0x28 }
  - { offset: 0x1D090, size: 0x8, addend: 0x0, symName: __ZNKSt6vectorIcSaIcEE4sizeEv, symObjAddr: 0x1334, symBinAddr: 0x100004564, symSize: 0x24 }
  - { offset: 0x1D0B9, size: 0x8, addend: 0x0, symName: __ZNKSt6vectorIS_IcSaIcEESaIS1_EE4sizeEv, symObjAddr: 0x1300, symBinAddr: 0x100004530, symSize: 0x34 }
  - { offset: 0x1D0E2, size: 0x8, addend: 0x0, symName: __ZNKSt6vectorIS_IS_IcSaIcEESaIS1_EESaIS3_EE4sizeEv, symObjAddr: 0x12CC, symBinAddr: 0x1000044FC, symSize: 0x34 }
  - { offset: 0x1D107, size: 0x8, addend: 0x0, symName: __ZSt8_DestroyIPSt6vectorIS0_IcSaIcEESaIS2_EEEvT_S6_, symObjAddr: 0x12A4, symBinAddr: 0x1000044D4, symSize: 0x28 }
  - { offset: 0x1D148, size: 0x8, addend: 0x0, symName: __ZSt24__uninitialized_fill_n_aIPSt6vectorIS0_IcSaIcEESaIS2_EEmS4_S4_ET_S6_T0_RKT1_RSaIT2_E, symObjAddr: 0x1274, symBinAddr: 0x1000044A4, symSize: 0x30 }
  - { offset: 0x1D1C1, size: 0x8, addend: 0x0, symName: __ZNSt12_Vector_baseISt6vectorIS0_IcSaIcEESaIS2_EESaIS4_EE13_M_deallocateEPS4_m, symObjAddr: 0x121C, symBinAddr: 0x10000444C, symSize: 0x58 }
  - { offset: 0x1D240, size: 0x8, addend: 0x0, symName: __ZNSt12_Vector_baseISt6vectorIS0_IcSaIcEESaIS2_EESaIS4_EE17_M_create_storageEm, symObjAddr: 0x11B0, symBinAddr: 0x1000043E0, symSize: 0x6C }
  - { offset: 0x1D2A1, size: 0x8, addend: 0x0, symName: __ZNSt12_Vector_baseISt6vectorIS0_IcSaIcEESaIS2_EESaIS4_EE12_Vector_implC1ERKS5_, symObjAddr: 0x1164, symBinAddr: 0x100004394, symSize: 0x4C }
  - { offset: 0x1D346, size: 0x8, addend: 0x0, symName: __ZNSt6vectorIS_IS_IcSaIcEESaIS1_EESaIS3_EE11_S_max_sizeERKS4_, symObjAddr: 0x1108, symBinAddr: 0x100004338, symSize: 0x5C }
  - { offset: 0x1D3F9, size: 0x8, addend: 0x0, symName: __ZSt8_DestroyIPSt6vectorIcSaIcEEEvT_S4_, symObjAddr: 0x10E0, symBinAddr: 0x100004310, symSize: 0x28 }
  - { offset: 0x1D43A, size: 0x8, addend: 0x0, symName: __ZSt24__uninitialized_fill_n_aIPSt6vectorIcSaIcEEmS2_S2_ET_S4_T0_RKT1_RSaIT2_E, symObjAddr: 0x10B0, symBinAddr: 0x1000042E0, symSize: 0x30 }
  - { offset: 0x1D4B3, size: 0x8, addend: 0x0, symName: __ZNSt12_Vector_baseISt6vectorIcSaIcEESaIS2_EE13_M_deallocateEPS2_m, symObjAddr: 0x1058, symBinAddr: 0x100004288, symSize: 0x58 }
  - { offset: 0x1D532, size: 0x8, addend: 0x0, symName: __ZNSt12_Vector_baseISt6vectorIcSaIcEESaIS2_EE17_M_create_storageEm, symObjAddr: 0xFEC, symBinAddr: 0x10000421C, symSize: 0x6C }
  - { offset: 0x1D593, size: 0x8, addend: 0x0, symName: __ZNSt12_Vector_baseISt6vectorIcSaIcEESaIS2_EE12_Vector_implC1ERKS3_, symObjAddr: 0xFA0, symBinAddr: 0x1000041D0, symSize: 0x4C }
  - { offset: 0x1D638, size: 0x8, addend: 0x0, symName: __ZNSt6vectorIS_IcSaIcEESaIS1_EE11_S_max_sizeERKS2_, symObjAddr: 0xF44, symBinAddr: 0x100004174, symSize: 0x5C }
  - { offset: 0x1D6EB, size: 0x8, addend: 0x0, symName: __ZSt8_DestroyIPcEvT_S1_, symObjAddr: 0xF1C, symBinAddr: 0x10000414C, symSize: 0x28 }
  - { offset: 0x1D72C, size: 0x8, addend: 0x0, symName: __ZSt27__uninitialized_default_n_aIPcmcET_S1_T0_RSaIT1_E, symObjAddr: 0xEF4, symBinAddr: 0x100004124, symSize: 0x28 }
  - { offset: 0x1D78C, size: 0x8, addend: 0x0, symName: __ZNSt12_Vector_baseIcSaIcEE13_M_deallocateEPcm, symObjAddr: 0xE9C, symBinAddr: 0x1000040CC, symSize: 0x58 }
  - { offset: 0x1D80B, size: 0x8, addend: 0x0, symName: __ZNSt12_Vector_baseIcSaIcEE17_M_create_storageEm, symObjAddr: 0xE40, symBinAddr: 0x100004070, symSize: 0x5C }
  - { offset: 0x1D86C, size: 0x8, addend: 0x0, symName: __ZNSt12_Vector_baseIcSaIcEE12_Vector_implC1ERKS0_, symObjAddr: 0xDF4, symBinAddr: 0x100004024, symSize: 0x4C }
  - { offset: 0x1D8EE, size: 0x8, addend: 0x0, symName: __ZNSt6vectorIcSaIcEE11_S_max_sizeERKS0_, symObjAddr: 0xDA0, symBinAddr: 0x100003FD0, symSize: 0x54 }
  - { offset: 0x1DA26, size: 0x8, addend: 0x0, symName: __ZNSt6vectorIcSaIcEEixEm, symObjAddr: 0xD7C, symBinAddr: 0x100003FAC, symSize: 0x24 }
  - { offset: 0x1DA5F, size: 0x8, addend: 0x0, symName: __ZNKSt6vectorIcSaIcEE14_M_range_checkEm, symObjAddr: 0xD10, symBinAddr: 0x100003F40, symSize: 0x6C }
  - { offset: 0x1DA98, size: 0x8, addend: 0x0, symName: __ZNSt6vectorIS_IcSaIcEESaIS1_EEixEm, symObjAddr: 0xCDC, symBinAddr: 0x100003F0C, symSize: 0x34 }
  - { offset: 0x1DAD1, size: 0x8, addend: 0x0, symName: __ZNKSt6vectorIS_IcSaIcEESaIS1_EE14_M_range_checkEm, symObjAddr: 0xC70, symBinAddr: 0x100003EA0, symSize: 0x6C }
  - { offset: 0x1DB0A, size: 0x8, addend: 0x0, symName: __ZNSt6vectorIS_IS_IcSaIcEESaIS1_EESaIS3_EEixEm, symObjAddr: 0xC3C, symBinAddr: 0x100003E6C, symSize: 0x34 }
  - { offset: 0x1DB43, size: 0x8, addend: 0x0, symName: __ZNKSt6vectorIS_IS_IcSaIcEESaIS1_EESaIS3_EE14_M_range_checkEm, symObjAddr: 0xBD0, symBinAddr: 0x100003E00, symSize: 0x6C }
  - { offset: 0x1DBB7, size: 0x8, addend: 0x0, symName: __ZNSt12_Vector_baseISt6vectorIS0_IcSaIcEESaIS2_EESaIS4_EE19_M_get_Tp_allocatorEv, symObjAddr: 0xBBC, symBinAddr: 0x100003DEC, symSize: 0x14 }
  - { offset: 0x1DBE0, size: 0x8, addend: 0x0, symName: __ZNSt6vectorIS_IS_IcSaIcEESaIS1_EESaIS3_EE18_M_fill_initializeEmRKS3_, symObjAddr: 0xB64, symBinAddr: 0x100003D94, symSize: 0x58 }
  - { offset: 0x1DC4E, size: 0x8, addend: 0x0, symName: __ZNSt12_Vector_baseISt6vectorIS0_IcSaIcEESaIS2_EESaIS4_EED2Ev, symObjAddr: 0xB08, symBinAddr: 0x100003D38, symSize: 0x5C }
  - { offset: 0x1DCAA, size: 0x8, addend: 0x0, symName: __ZNSt12_Vector_baseISt6vectorIS0_IcSaIcEESaIS2_EESaIS4_EEC2EmRKS5_, symObjAddr: 0xAB4, symBinAddr: 0x100003CE4, symSize: 0x54 }
  - { offset: 0x1DD09, size: 0x8, addend: 0x0, symName: __ZNSt12_Vector_baseISt6vectorIS0_IcSaIcEESaIS2_EESaIS4_EE12_Vector_implD1Ev, symObjAddr: 0xA88, symBinAddr: 0x100003CB8, symSize: 0x2C }
  - { offset: 0x1DD4D, size: 0x8, addend: 0x0, symName: __ZNSt6vectorIS_IS_IcSaIcEESaIS1_EESaIS3_EE17_S_check_init_lenEmRKS4_, symObjAddr: 0xA04, symBinAddr: 0x100003C34, symSize: 0x84 }
  - { offset: 0x1DE25, size: 0x8, addend: 0x0, symName: __ZNSt15__new_allocatorISt6vectorIS0_IcSaIcEESaIS2_EEED2Ev, symObjAddr: 0x9F0, symBinAddr: 0x100003C20, symSize: 0x14 }
  - { offset: 0x1DE9B, size: 0x8, addend: 0x0, symName: __ZNSt12_Vector_baseISt6vectorIcSaIcEESaIS2_EE19_M_get_Tp_allocatorEv, symObjAddr: 0x9DC, symBinAddr: 0x100003C0C, symSize: 0x14 }
  - { offset: 0x1DEC4, size: 0x8, addend: 0x0, symName: __ZNSt6vectorIS_IcSaIcEESaIS1_EE18_M_fill_initializeEmRKS1_, symObjAddr: 0x984, symBinAddr: 0x100003BB4, symSize: 0x58 }
  - { offset: 0x1DF32, size: 0x8, addend: 0x0, symName: __ZNSt12_Vector_baseISt6vectorIcSaIcEESaIS2_EED2Ev, symObjAddr: 0x928, symBinAddr: 0x100003B58, symSize: 0x5C }
  - { offset: 0x1DF8E, size: 0x8, addend: 0x0, symName: __ZNSt12_Vector_baseISt6vectorIcSaIcEESaIS2_EEC2EmRKS3_, symObjAddr: 0x8D4, symBinAddr: 0x100003B04, symSize: 0x54 }
  - { offset: 0x1DFED, size: 0x8, addend: 0x0, symName: __ZNSt12_Vector_baseISt6vectorIcSaIcEESaIS2_EE12_Vector_implD1Ev, symObjAddr: 0x8A8, symBinAddr: 0x100003AD8, symSize: 0x2C }
  - { offset: 0x1E031, size: 0x8, addend: 0x0, symName: __ZNSt6vectorIS_IcSaIcEESaIS1_EE17_S_check_init_lenEmRKS2_, symObjAddr: 0x824, symBinAddr: 0x100003A54, symSize: 0x84 }
  - { offset: 0x1E109, size: 0x8, addend: 0x0, symName: __ZNSt15__new_allocatorISt6vectorIcSaIcEEED2Ev, symObjAddr: 0x810, symBinAddr: 0x100003A40, symSize: 0x14 }
  - { offset: 0x1E17F, size: 0x8, addend: 0x0, symName: __ZNSt12_Vector_baseIcSaIcEE19_M_get_Tp_allocatorEv, symObjAddr: 0x7FC, symBinAddr: 0x100003A2C, symSize: 0x14 }
  - { offset: 0x1E1A8, size: 0x8, addend: 0x0, symName: __ZNSt6vectorIcSaIcEE21_M_default_initializeEm, symObjAddr: 0x7AC, symBinAddr: 0x1000039DC, symSize: 0x50 }
  - { offset: 0x1E206, size: 0x8, addend: 0x0, symName: __ZNSt12_Vector_baseIcSaIcEED2Ev, symObjAddr: 0x760, symBinAddr: 0x100003990, symSize: 0x4C }
  - { offset: 0x1E262, size: 0x8, addend: 0x0, symName: __ZNSt12_Vector_baseIcSaIcEEC2EmRKS0_, symObjAddr: 0x70C, symBinAddr: 0x10000393C, symSize: 0x54 }
  - { offset: 0x1E2C1, size: 0x8, addend: 0x0, symName: __ZNSt12_Vector_baseIcSaIcEE12_Vector_implD1Ev, symObjAddr: 0x6E0, symBinAddr: 0x100003910, symSize: 0x2C }
  - { offset: 0x1E305, size: 0x8, addend: 0x0, symName: __ZNSt6vectorIcSaIcEE17_S_check_init_lenEmRKS0_, symObjAddr: 0x65C, symBinAddr: 0x10000388C, symSize: 0x84 }
  - { offset: 0x1E3F2, size: 0x8, addend: 0x0, symName: __ZNSt15__new_allocatorIcED2Ev, symObjAddr: 0x648, symBinAddr: 0x100003878, symSize: 0x14 }
  - { offset: 0x1E42D, size: 0x8, addend: 0x0, symName: __ZNSt6vectorIcSaIcEE2atEm, symObjAddr: 0x618, symBinAddr: 0x100003848, symSize: 0x30 }
  - { offset: 0x1E466, size: 0x8, addend: 0x0, symName: __ZNSt6vectorIS_IcSaIcEESaIS1_EE2atEm, symObjAddr: 0x5E8, symBinAddr: 0x100003818, symSize: 0x30 }
  - { offset: 0x1E49F, size: 0x8, addend: 0x0, symName: __ZNSt6vectorIS_IS_IcSaIcEESaIS1_EESaIS3_EE2atEm, symObjAddr: 0x5B8, symBinAddr: 0x1000037E8, symSize: 0x30 }
  - { offset: 0x1E4FD, size: 0x8, addend: 0x0, symName: __ZNSt6vectorIS_IS_IcSaIcEESaIS1_EESaIS3_EED1Ev, symObjAddr: 0x55C, symBinAddr: 0x10000378C, symSize: 0x5C }
  - { offset: 0x1E59D, size: 0x8, addend: 0x0, symName: __ZNSt6vectorIS_IS_IcSaIcEESaIS1_EESaIS3_EEC1EmRKS3_RKS4_, symObjAddr: 0x4EC, symBinAddr: 0x10000371C, symSize: 0x70 }
  - { offset: 0x1E638, size: 0x8, addend: 0x0, symName: __ZNSt6vectorIS_IcSaIcEESaIS1_EED1Ev, symObjAddr: 0x490, symBinAddr: 0x1000036C0, symSize: 0x5C }
  - { offset: 0x1E6D8, size: 0x8, addend: 0x0, symName: __ZNSt6vectorIS_IcSaIcEESaIS1_EEC1EmRKS1_RKS2_, symObjAddr: 0x420, symBinAddr: 0x100003650, symSize: 0x70 }
  - { offset: 0x1E773, size: 0x8, addend: 0x0, symName: __ZNSt6vectorIcSaIcEED1Ev, symObjAddr: 0x3C4, symBinAddr: 0x1000035F4, symSize: 0x5C }
  - { offset: 0x1E805, size: 0x8, addend: 0x0, symName: __ZNSt6vectorIcSaIcEEC1EmRKS0_, symObjAddr: 0x35C, symBinAddr: 0x10000358C, symSize: 0x68 }
  - { offset: 0x1E876, size: 0x8, addend: 0x0, symName: _main, symObjAddr: 0x7C, symBinAddr: 0x1000032AC, symSize: 0x2E0 }
  - { offset: 0x1EB1B, size: 0x8, addend: 0x0, symName: __ZSt3minImERKT_S2_S2_, symObjAddr: 0x44, symBinAddr: 0x100003274, symSize: 0x38 }
  - { offset: 0x1EB64, size: 0x8, addend: 0x0, symName: __ZdlPvS_, symObjAddr: 0x2C, symBinAddr: 0x10000325C, symSize: 0x18 }
  - { offset: 0x1EB9A, size: 0x8, addend: 0x0, symName: __ZnwmPv, symObjAddr: 0x14, symBinAddr: 0x100003244, symSize: 0x18 }
  - { offset: 0x1EBCB, size: 0x8, addend: 0x0, symName: __ZSt17__size_to_integerm, symObjAddr: 0x0, symBinAddr: 0x100003230, symSize: 0x14 }
...
