---
triple:          'arm64-apple-darwin'
binary-path:     '/Users/akihiro/c-practice/396D'
relocations:
  - { offset: 0x20732, size: 0x8, addend: 0x0, symName: __ZStL8__ioinit, symObjAddr: 0xA2540, symBinAddr: 0x100014950, symSize: 0x0 }
  - { offset: 0x21100, size: 0x8, addend: 0x0, symName: __GLOBAL__sub_I_396D.cpp, symObjAddr: 0x5730, symBinAddr: 0x10000ABEC, symSize: 0x14 }
  - { offset: 0x21118, size: 0x8, addend: 0x0, symName: __Z41__static_initialization_and_destruction_0v, symObjAddr: 0x56F4, symBinAddr: 0x10000ABB0, symSize: 0x3C }
  - { offset: 0x21130, size: 0x8, addend: 0x0, symName: __ZNSt11__copy_moveILb0ELb0ESt26random_access_iterator_tagE12__assign_oneIiiEEvPT_PT0_, symObjAddr: 0x5538, symBinAddr: 0x10000AB88, symSize: 0x28 }
  - { offset: 0x2117D, size: 0x8, addend: 0x0, symName: __ZNSt11__copy_moveILb0ELb1ESt26random_access_iterator_tagE8__copy_mIiiEEPT0_PT_S6_S4_, symObjAddr: 0x54A8, symBinAddr: 0x10000AAF8, symSize: 0x90 }
  - { offset: 0x211EC, size: 0x8, addend: 0x0, symName: __ZSt14__copy_move_a2ILb0EPiS0_ET1_T0_S2_S1_, symObjAddr: 0x547C, symBinAddr: 0x10000AACC, symSize: 0x2C }
  - { offset: 0x21258, size: 0x8, addend: 0x0, symName: __ZNK9__gnu_cxx17__normal_iteratorIPiSt6vectorIiSaIiEEEplEl, symObjAddr: 0x543C, symBinAddr: 0x10000AA8C, symSize: 0x40 }
  - { offset: 0x2128F, size: 0x8, addend: 0x0, symName: __ZNSt20__uninitialized_copyILb1EE13__uninit_copyIPiS2_EET0_T_S4_S3_, symObjAddr: 0x5410, symBinAddr: 0x10000AA60, symSize: 0x2C }
  - { offset: 0x212EA, size: 0x8, addend: 0x0, symName: __ZSt14__copy_move_a1ILb0EPiS0_ET1_T0_S2_S1_, symObjAddr: 0x53E4, symBinAddr: 0x10000AA34, symSize: 0x2C }
  - { offset: 0x21352, size: 0x8, addend: 0x0, symName: __ZNSt12_Destroy_auxILb1EE9__destroyIN9__gnu_cxx17__normal_iteratorIPiSt6vectorIiSaIiEEEEEEvT_S9_, symObjAddr: 0x53CC, symBinAddr: 0x10000AA1C, symSize: 0x18 }
  - { offset: 0x21386, size: 0x8, addend: 0x0, symName: __ZSt12__niter_wrapIN9__gnu_cxx17__normal_iteratorIPiSt6vectorIiSaIiEEEES2_ET_S7_T0_, symObjAddr: 0x5384, symBinAddr: 0x10000A9D4, symSize: 0x48 }
  - { offset: 0x213D3, size: 0x8, addend: 0x0, symName: __ZSt12__niter_baseIPiSt6vectorIiSaIiEEET_N9__gnu_cxx17__normal_iteratorIS4_T0_EE, symObjAddr: 0x5364, symBinAddr: 0x10000A9B4, symSize: 0x20 }
  - { offset: 0x2140F, size: 0x8, addend: 0x0, symName: __ZSt18uninitialized_copyIPiS0_ET0_T_S2_S1_, symObjAddr: 0x5328, symBinAddr: 0x10000A978, symSize: 0x3C }
  - { offset: 0x2148A, size: 0x8, addend: 0x0, symName: __ZSt13__copy_move_aILb0EPiS0_ET1_T0_S2_S1_, symObjAddr: 0x52C8, symBinAddr: 0x10000A918, symSize: 0x60 }
  - { offset: 0x214F2, size: 0x8, addend: 0x0, symName: __ZSt12__miter_baseIPiET_S1_, symObjAddr: 0x52B4, symBinAddr: 0x10000A904, symSize: 0x14 }
  - { offset: 0x21525, size: 0x8, addend: 0x0, symName: __ZSt8_DestroyIN9__gnu_cxx17__normal_iteratorIPiSt6vectorIiSaIiEEEEEvT_S7_, symObjAddr: 0x528C, symBinAddr: 0x10000A8DC, symSize: 0x28 }
  - { offset: 0x21567, size: 0x8, addend: 0x0, symName: __ZSt13__copy_move_aILb0EN9__gnu_cxx17__normal_iteratorIPKiSt6vectorIiSaIiEEEENS1_IPiS6_EEET1_T0_SB_SA_, symObjAddr: 0x522C, symBinAddr: 0x10000A87C, symSize: 0x60 }
  - { offset: 0x215D3, size: 0x8, addend: 0x0, symName: __ZNSt6vectorIiSaIiEE15_M_erase_at_endEPi, symObjAddr: 0x51A4, symBinAddr: 0x10000A7F4, symSize: 0x88 }
  - { offset: 0x21664, size: 0x8, addend: 0x0, symName: __ZNSt11__copy_moveILb0ELb0ESt26random_access_iterator_tagE12__assign_oneIiKiEEvPT_PT0_, symObjAddr: 0x517C, symBinAddr: 0x10000A7CC, symSize: 0x28 }
  - { offset: 0x216B1, size: 0x8, addend: 0x0, symName: __ZSt22__uninitialized_copy_aIPiS0_iET0_T_S2_S1_RSaIT1_E, symObjAddr: 0x514C, symBinAddr: 0x10000A79C, symSize: 0x30 }
  - { offset: 0x21721, size: 0x8, addend: 0x0, symName: __ZSt4copyIPiS0_ET0_T_S2_S1_, symObjAddr: 0x5104, symBinAddr: 0x10000A754, symSize: 0x48 }
  - { offset: 0x217BA, size: 0x8, addend: 0x0, symName: __ZSt4copyIN9__gnu_cxx17__normal_iteratorIPKiSt6vectorIiSaIiEEEENS1_IPiS6_EEET0_T_SB_SA_, symObjAddr: 0x50BC, symBinAddr: 0x10000A70C, symSize: 0x48 }
  - { offset: 0x2181C, size: 0x8, addend: 0x0, symName: __ZNSt6vectorIiSaIiEE20_M_allocate_and_copyIN9__gnu_cxx17__normal_iteratorIPKiS1_EEEEPimT_S9_, symObjAddr: 0x5038, symBinAddr: 0x10000A688, symSize: 0x84 }
  - { offset: 0x21893, size: 0x8, addend: 0x0, symName: __ZNKSt6vectorIiSaIiEE8capacityEv, symObjAddr: 0x5010, symBinAddr: 0x10000A660, symSize: 0x28 }
  - { offset: 0x218EA, size: 0x8, addend: 0x0, symName: __ZNSt6vectorIiSaIiEE5clearEv, symObjAddr: 0x4FE4, symBinAddr: 0x10000A634, symSize: 0x2C }
  - { offset: 0x21922, size: 0x8, addend: 0x0, symName: __ZNSt11__copy_moveILb0ELb1ESt26random_access_iterator_tagE8__copy_mIKiiEEPT0_PT_S7_S5_, symObjAddr: 0x4F54, symBinAddr: 0x10000A5A4, symSize: 0x90 }
  - { offset: 0x219E9, size: 0x8, addend: 0x0, symName: __ZNSt12_Destroy_auxILb1EE9__destroyIPSt4pairIixEEEvT_S5_, symObjAddr: 0x4F3C, symBinAddr: 0x10000A58C, symSize: 0x18 }
  - { offset: 0x21A37, size: 0x8, addend: 0x0, symName: __ZNSt6vectorIiSaIiEEaSERKS1_, symObjAddr: 0x4BF4, symBinAddr: 0x10000A244, symSize: 0x348 }
  - { offset: 0x21BB4, size: 0x8, addend: 0x0, symName: __ZSt11__addressofIKSt6vectorIiSaIiEEEPT_RS4_, symObjAddr: 0x4BE0, symBinAddr: 0x10000A230, symSize: 0x14 }
  - { offset: 0x21BEC, size: 0x8, addend: 0x0, symName: __ZSt7forwardIRKSt4pairISt6vectorIiSaIiEExEEOT_RNSt16remove_referenceIS7_E4typeE, symObjAddr: 0x4BCC, symBinAddr: 0x10000A21C, symSize: 0x14 }
  - { offset: 0x21C1E, size: 0x8, addend: 0x0, symName: __ZSt14__copy_move_a2ILb0EPKiPiET1_T0_S4_S3_, symObjAddr: 0x4BA0, symBinAddr: 0x10000A1F0, symSize: 0x2C }
  - { offset: 0x21C8A, size: 0x8, addend: 0x0, symName: __ZNK9__gnu_cxx17__normal_iteratorIPKiSt6vectorIiSaIiEEE4baseEv, symObjAddr: 0x4B8C, symBinAddr: 0x10000A1DC, symSize: 0x14 }
  - { offset: 0x21CF3, size: 0x8, addend: 0x0, symName: __ZSt12__niter_baseIPKiET_S2_, symObjAddr: 0x4B78, symBinAddr: 0x10000A1C8, symSize: 0x14 }
  - { offset: 0x21D69, size: 0x8, addend: 0x0, symName: __ZSt8_DestroyIPSt4pairIixEEvT_S3_, symObjAddr: 0x4B50, symBinAddr: 0x10000A1A0, symSize: 0x28 }
  - { offset: 0x21DAF, size: 0x8, addend: 0x0, symName: __ZNSt12_Vector_baseISt4pairIixESaIS1_EE13_M_deallocateEPS1_m, symObjAddr: 0x4AF8, symBinAddr: 0x10000A148, symSize: 0x58 }
  - { offset: 0x21E55, size: 0x8, addend: 0x0, symName: __ZNSt15__new_allocatorISt4pairIixEED2Ev, symObjAddr: 0x4AE4, symBinAddr: 0x10000A134, symSize: 0x14 }
  - { offset: 0x21E95, size: 0x8, addend: 0x0, symName: __ZNSt12_Vector_baseISt4pairIixESaIS1_EE17_Vector_impl_dataC2Ev, symObjAddr: 0x4AB8, symBinAddr: 0x10000A108, symSize: 0x2C }
  - { offset: 0x21ED3, size: 0x8, addend: 0x0, symName: __ZSt7forwardIRSt4pairISt6vectorIiSaIiEExEEOT_RNSt16remove_referenceIS6_E4typeE, symObjAddr: 0x4AA4, symBinAddr: 0x10000A0F4, symSize: 0x14 }
  - { offset: 0x21F09, size: 0x8, addend: 0x0, symName: __ZNSt4pairISt6vectorIiSaIiEExEaSERKS3_, symObjAddr: 0x4A6C, symBinAddr: 0x10000A0BC, symSize: 0x38 }
  - { offset: 0x21F40, size: 0x8, addend: 0x0, symName: __ZSt10_ConstructISt4pairISt6vectorIiSaIiEExEJRKS4_EEvPT_DpOT0_, symObjAddr: 0x49F0, symBinAddr: 0x10000A040, symSize: 0x7C }
  - { offset: 0x21F90, size: 0x8, addend: 0x0, symName: __ZNK9__gnu_cxx17__normal_iteratorIPKSt4pairISt6vectorIiSaIiEExES2_IS5_SaIS5_EEEdeEv, symObjAddr: 0x49D8, symBinAddr: 0x10000A028, symSize: 0x18 }
  - { offset: 0x21FBA, size: 0x8, addend: 0x0, symName: __ZN9__gnu_cxx17__normal_iteratorIPKSt4pairISt6vectorIiSaIiEExES2_IS5_SaIS5_EEEppEv, symObjAddr: 0x49B0, symBinAddr: 0x10000A000, symSize: 0x28 }
  - { offset: 0x21FE6, size: 0x8, addend: 0x0, symName: __ZN9__gnu_cxxneIPKSt4pairISt6vectorIiSaIiEExES2_IS5_SaIS5_EEEEbRKNS_17__normal_iteratorIT_T0_EESF_, symObjAddr: 0x496C, symBinAddr: 0x100009FBC, symSize: 0x44 }
  - { offset: 0x22033, size: 0x8, addend: 0x0, symName: __ZSt12__niter_wrapIPiET_RKS1_S1_, symObjAddr: 0x4954, symBinAddr: 0x100009FA4, symSize: 0x18 }
  - { offset: 0x2206F, size: 0x8, addend: 0x0, symName: __ZSt14__copy_move_a1ILb0EPKiPiET1_T0_S4_S3_, symObjAddr: 0x4928, symBinAddr: 0x100009F78, symSize: 0x2C }
  - { offset: 0x220D7, size: 0x8, addend: 0x0, symName: __ZSt12__niter_baseIPKiSt6vectorIiSaIiEEET_N9__gnu_cxx17__normal_iteratorIS5_T0_EE, symObjAddr: 0x4908, symBinAddr: 0x100009F58, symSize: 0x20 }
  - { offset: 0x22113, size: 0x8, addend: 0x0, symName: __ZSt19__relocate_object_aISt4pairISt6vectorIiSaIiEExES4_SaIS4_EEvPT_PT0_RT1_, symObjAddr: 0x4838, symBinAddr: 0x100009E88, symSize: 0xD0 }
  - { offset: 0x2225B, size: 0x8, addend: 0x0, symName: __ZSt13__copy_move_aILb0EPKiPiET1_T0_S4_S3_, symObjAddr: 0x47D8, symBinAddr: 0x100009E28, symSize: 0x60 }
  - { offset: 0x222C3, size: 0x8, addend: 0x0, symName: __ZSt12__miter_baseIPKiET_S2_, symObjAddr: 0x47C4, symBinAddr: 0x100009E14, symSize: 0x14 }
  - { offset: 0x222F6, size: 0x8, addend: 0x0, symName: __ZSt19__relocate_object_aISt4pairIixES1_SaIS1_EEvPT_PT0_RT1_, symObjAddr: 0x4700, symBinAddr: 0x100009D50, symSize: 0xC4 }
  - { offset: 0x22428, size: 0x8, addend: 0x0, symName: __ZSt11__addressofISt4pairIixEEPT_RS2_, symObjAddr: 0x46EC, symBinAddr: 0x100009D3C, symSize: 0x14 }
  - { offset: 0x224D3, size: 0x8, addend: 0x0, symName: __ZNSt12_Vector_baseISt4pairIixESaIS1_EED2Ev, symObjAddr: 0x469C, symBinAddr: 0x100009CEC, symSize: 0x50 }
  - { offset: 0x22533, size: 0x8, addend: 0x0, symName: __ZNSt12_Vector_baseISt4pairIixESaIS1_EE12_Vector_implC1Ev, symObjAddr: 0x4664, symBinAddr: 0x100009CB4, symSize: 0x38 }
  - { offset: 0x2259B, size: 0x8, addend: 0x0, symName: __ZSt10_ConstructISt4pairISt6vectorIiSaIiEExEJRS4_EEvPT_DpOT0_, symObjAddr: 0x45E8, symBinAddr: 0x100009C38, symSize: 0x7C }
  - { offset: 0x2260A, size: 0x8, addend: 0x0, symName: __ZNSt4pairISt6vectorIiSaIiEExEC1ERKS3_, symObjAddr: 0x45B0, symBinAddr: 0x100009C00, symSize: 0x38 }
  - { offset: 0x22635, size: 0x8, addend: 0x0, symName: __ZNSt11__copy_moveILb0ELb0ESt26random_access_iterator_tagE8__copy_mIPSt4pairISt6vectorIiSaIiEExES8_EET0_T_SA_S9_, symObjAddr: 0x453C, symBinAddr: 0x100009B8C, symSize: 0x74 }
  - { offset: 0x226C4, size: 0x8, addend: 0x0, symName: __ZNSt11__copy_moveILb0ELb0ESt26random_access_iterator_tagE8__copy_mIPKSt4pairISt6vectorIiSaIiEExEPS7_EET0_T_SC_SB_, symObjAddr: 0x44C8, symBinAddr: 0x100009B18, symSize: 0x74 }
  - { offset: 0x22753, size: 0x8, addend: 0x0, symName: __ZSt16__do_uninit_copyIN9__gnu_cxx17__normal_iteratorIPKSt4pairISt6vectorIiSaIiEExES3_IS6_SaIS6_EEEEPS6_ET0_T_SE_SD_, symObjAddr: 0x4420, symBinAddr: 0x100009A70, symSize: 0xA8 }
  - { offset: 0x227BE, size: 0x8, addend: 0x0, symName: __ZSt13__copy_move_aILb0EN9__gnu_cxx17__normal_iteratorIPKiSt6vectorIiSaIiEEEEPiET1_T0_SA_S9_, symObjAddr: 0x43C0, symBinAddr: 0x100009A10, symSize: 0x60 }
  - { offset: 0x22826, size: 0x8, addend: 0x0, symName: __ZSt12__miter_baseIN9__gnu_cxx17__normal_iteratorIPKiSt6vectorIiSaIiEEEEET_S8_, symObjAddr: 0x43AC, symBinAddr: 0x1000099FC, symSize: 0x14 }
  - { offset: 0x22859, size: 0x8, addend: 0x0, symName: __ZSt14__relocate_a_1IPSt4pairISt6vectorIiSaIiEExES5_SaIS4_EET0_T_S8_S7_RT1_, symObjAddr: 0x4328, symBinAddr: 0x100009978, symSize: 0x84 }
  - { offset: 0x228E2, size: 0x8, addend: 0x0, symName: __ZNSt6vectorISt4pairIS_IiSaIiEExESaIS3_EE11_S_max_sizeERKS4_, symObjAddr: 0x42D4, symBinAddr: 0x100009924, symSize: 0x54 }
  - { offset: 0x229C4, size: 0x8, addend: 0x0, symName: __ZNSt12_Vector_baseIiSaIiEE17_Vector_impl_dataC2EOS2_, symObjAddr: 0x4264, symBinAddr: 0x1000098B4, symSize: 0x70 }
  - { offset: 0x229FB, size: 0x8, addend: 0x0, symName: __ZSt4moveIRNSt12_Vector_baseIiSaIiEE12_Vector_implEEONSt16remove_referenceIT_E4typeEOS6_, symObjAddr: 0x4250, symBinAddr: 0x1000098A0, symSize: 0x14 }
  - { offset: 0x22A2D, size: 0x8, addend: 0x0, symName: __ZSt4copyIPKiPiET0_T_S4_S3_, symObjAddr: 0x4208, symBinAddr: 0x100009858, symSize: 0x48 }
  - { offset: 0x22AA1, size: 0x8, addend: 0x0, symName: __ZSt14__relocate_a_1IPSt4pairIixES2_SaIS1_EET0_T_S5_S4_RT1_, symObjAddr: 0x4184, symBinAddr: 0x1000097D4, symSize: 0x84 }
  - { offset: 0x22B2A, size: 0x8, addend: 0x0, symName: __ZSt12__niter_baseIPSt4pairIixEET_S3_, symObjAddr: 0x4170, symBinAddr: 0x1000097C0, symSize: 0x14 }
  - { offset: 0x22B61, size: 0x8, addend: 0x0, symName: __ZNSt15__new_allocatorISt4pairIixEE8allocateEmPKv, symObjAddr: 0x40F4, symBinAddr: 0x100009744, symSize: 0x7C }
  - { offset: 0x22BED, size: 0x8, addend: 0x0, symName: __ZNKSt12_Vector_baseISt4pairIixESaIS1_EE19_M_get_Tp_allocatorEv, symObjAddr: 0x40E0, symBinAddr: 0x100009730, symSize: 0x14 }
  - { offset: 0x22C13, size: 0x8, addend: 0x0, symName: __ZNSt6vectorISt4pairIixESaIS1_EE11_S_max_sizeERKS2_, symObjAddr: 0x408C, symBinAddr: 0x1000096DC, symSize: 0x54 }
  - { offset: 0x22CF2, size: 0x8, addend: 0x0, symName: __ZNSt6vectorISt4pairIixESaIS1_EED1Ev, symObjAddr: 0x4030, symBinAddr: 0x100009680, symSize: 0x5C }
  - { offset: 0x22D4A, size: 0x8, addend: 0x0, symName: __ZSt10_ConstructISt6vectorISt4pairIixESaIS2_EEJEEvPT_DpOT0_, symObjAddr: 0x3FFC, symBinAddr: 0x10000964C, symSize: 0x34 }
  - { offset: 0x22DA4, size: 0x8, addend: 0x0, symName: __ZNSt6vectorISt4pairIixESaIS1_EEC1Ev, symObjAddr: 0x3FDC, symBinAddr: 0x10000962C, symSize: 0x20 }
  - { offset: 0x22DE4, size: 0x8, addend: 0x0, symName: __ZNSt12_Vector_baseISt4pairIixESaIS1_EEC2Ev, symObjAddr: 0x3FBC, symBinAddr: 0x10000960C, symSize: 0x20 }
  - { offset: 0x22E31, size: 0x8, addend: 0x0, symName: __ZNSt12_Vector_baseISt4pairIixESaIS1_EE12_Vector_implD1Ev, symObjAddr: 0x3F90, symBinAddr: 0x1000095E0, symSize: 0x2C }
  - { offset: 0x22E7A, size: 0x8, addend: 0x0, symName: __ZNSt15__new_allocatorISt6vectorISt4pairIixESaIS2_EEE8allocateEmPKv, symObjAddr: 0x3F00, symBinAddr: 0x100009550, symSize: 0x90 }
  - { offset: 0x22F02, size: 0x8, addend: 0x0, symName: __ZSt16__do_uninit_copyIPSt4pairISt6vectorIiSaIiEExES5_ET0_T_S7_S6_, symObjAddr: 0x3E6C, symBinAddr: 0x1000094BC, symSize: 0x94 }
  - { offset: 0x22F6D, size: 0x8, addend: 0x0, symName: __ZSt14__copy_move_a2ILb0EPSt4pairISt6vectorIiSaIiEExES5_ET1_T0_S7_S6_, symObjAddr: 0x3E40, symBinAddr: 0x100009490, symSize: 0x2C }
  - { offset: 0x22FD9, size: 0x8, addend: 0x0, symName: __ZNK9__gnu_cxx17__normal_iteratorIPSt4pairISt6vectorIiSaIiEExES2_IS5_SaIS5_EEEplEl, symObjAddr: 0x3E00, symBinAddr: 0x100009450, symSize: 0x40 }
  - { offset: 0x23010, size: 0x8, addend: 0x0, symName: __ZSt14__copy_move_a2ILb0EPKSt4pairISt6vectorIiSaIiEExEPS4_ET1_T0_S9_S8_, symObjAddr: 0x3DD4, symBinAddr: 0x100009424, symSize: 0x2C }
  - { offset: 0x23078, size: 0x8, addend: 0x0, symName: __ZNSt20__uninitialized_copyILb0EE13__uninit_copyIN9__gnu_cxx17__normal_iteratorIPKSt4pairISt6vectorIiSaIiEExES5_IS8_SaIS8_EEEEPS8_EET0_T_SG_SF_, symObjAddr: 0x3DA8, symBinAddr: 0x1000093F8, symSize: 0x2C }
  - { offset: 0x230D7, size: 0x8, addend: 0x0, symName: __ZNSt15__new_allocatorISt4pairISt6vectorIiSaIiEExEE8allocateEmPKv, symObjAddr: 0x3D2C, symBinAddr: 0x10000937C, symSize: 0x7C }
  - { offset: 0x2315F, size: 0x8, addend: 0x0, symName: __ZSt14__relocate_a_1IiiENSt9enable_ifIXsrSt24__is_bitwise_relocatableIT_vE5valueEPS2_E4typeES4_S4_S4_RSaIT0_E, symObjAddr: 0x3CC8, symBinAddr: 0x100009318, symSize: 0x64 }
  - { offset: 0x231DF, size: 0x8, addend: 0x0, symName: __ZSt12__niter_baseIPiET_S1_, symObjAddr: 0x3CB4, symBinAddr: 0x100009304, symSize: 0x14 }
  - { offset: 0x23212, size: 0x8, addend: 0x0, symName: __ZSt4copyIN9__gnu_cxx17__normal_iteratorIPKiSt6vectorIiSaIiEEEEPiET0_T_SA_S9_, symObjAddr: 0x3C6C, symBinAddr: 0x1000092BC, symSize: 0x48 }
  - { offset: 0x23270, size: 0x8, addend: 0x0, symName: __ZSt12__relocate_aIPSt4pairISt6vectorIiSaIiEExES5_SaIS4_EET0_T_S8_S7_RT1_, symObjAddr: 0x3C10, symBinAddr: 0x100009260, symSize: 0x5C }
  - { offset: 0x232EC, size: 0x8, addend: 0x0, symName: __ZNKSt6vectorISt4pairIS_IiSaIiEExESaIS3_EE8max_sizeEv, symObjAddr: 0x3BF0, symBinAddr: 0x100009240, symSize: 0x20 }
  - { offset: 0x2333D, size: 0x8, addend: 0x0, symName: __ZNSt12_Vector_baseIiSaIiEE12_Vector_implC1EOS2_, symObjAddr: 0x3B84, symBinAddr: 0x1000091D4, symSize: 0x6C }
  - { offset: 0x233C0, size: 0x8, addend: 0x0, symName: __ZNSt20__uninitialized_copyILb1EE13__uninit_copyIPKiPiEET0_T_S6_S5_, symObjAddr: 0x3B58, symBinAddr: 0x1000091A8, symSize: 0x2C }
  - { offset: 0x2341F, size: 0x8, addend: 0x0, symName: __ZNSt15__new_allocatorIiE8allocateEmPKv, symObjAddr: 0x3ADC, symBinAddr: 0x10000912C, symSize: 0x7C }
  - { offset: 0x234D8, size: 0x8, addend: 0x0, symName: __ZSt8_DestroyISt4pairISt6vectorIiSaIiEExEEvPT_, symObjAddr: 0x3ABC, symBinAddr: 0x10000910C, symSize: 0x20 }
  - { offset: 0x2350A, size: 0x8, addend: 0x0, symName: __ZSt11__addressofISt4pairISt6vectorIiSaIiEExEEPT_RS5_, symObjAddr: 0x3AA8, symBinAddr: 0x1000090F8, symSize: 0x14 }
  - { offset: 0x2353C, size: 0x8, addend: 0x0, symName: __ZSt12__relocate_aIPSt4pairIixES2_SaIS1_EET0_T_S5_S4_RT1_, symObjAddr: 0x3A4C, symBinAddr: 0x10000909C, symSize: 0x5C }
  - { offset: 0x235B8, size: 0x8, addend: 0x0, symName: __ZNSt15__new_allocatorISt4pairIixEE10deallocateEPS1_m, symObjAddr: 0x3A1C, symBinAddr: 0x10000906C, symSize: 0x30 }
  - { offset: 0x23626, size: 0x8, addend: 0x0, symName: __ZNKSt6vectorISt4pairIixESaIS1_EE4sizeEv, symObjAddr: 0x39F4, symBinAddr: 0x100009044, symSize: 0x28 }
  - { offset: 0x23650, size: 0x8, addend: 0x0, symName: __ZNKSt6vectorISt4pairIixESaIS1_EE8max_sizeEv, symObjAddr: 0x39D4, symBinAddr: 0x100009024, symSize: 0x20 }
  - { offset: 0x23676, size: 0x8, addend: 0x0, symName: __ZSt8_DestroyISt6vectorISt4pairIixESaIS2_EEEvPT_, symObjAddr: 0x39B4, symBinAddr: 0x100009004, symSize: 0x20 }
  - { offset: 0x236A8, size: 0x8, addend: 0x0, symName: __ZSt11__addressofISt6vectorISt4pairIixESaIS2_EEEPT_RS5_, symObjAddr: 0x39A0, symBinAddr: 0x100008FF0, symSize: 0x14 }
  - { offset: 0x236DA, size: 0x8, addend: 0x0, symName: __ZNSt27__uninitialized_default_n_1ILb0EE18__uninit_default_nIPSt6vectorISt4pairIixESaIS4_EEmEET_S8_T0_, symObjAddr: 0x3948, symBinAddr: 0x100008F98, symSize: 0x58 }
  - { offset: 0x2373C, size: 0x8, addend: 0x0, symName: __ZNSt15__new_allocatorISt6vectorISt4pairIixESaIS2_EEE10deallocateEPS4_m, symObjAddr: 0x390C, symBinAddr: 0x100008F5C, symSize: 0x3C }
  - { offset: 0x237BC, size: 0x8, addend: 0x0, symName: __ZNSt20__uninitialized_copyILb0EE13__uninit_copyIPSt4pairISt6vectorIiSaIiEExES7_EET0_T_S9_S8_, symObjAddr: 0x38E0, symBinAddr: 0x100008F30, symSize: 0x2C }
  - { offset: 0x23817, size: 0x8, addend: 0x0, symName: __ZSt12__niter_wrapIPSt4pairISt6vectorIiSaIiEExEET_RKS6_S6_, symObjAddr: 0x38C8, symBinAddr: 0x100008F18, symSize: 0x18 }
  - { offset: 0x23853, size: 0x8, addend: 0x0, symName: __ZSt14__copy_move_a1ILb0EPSt4pairISt6vectorIiSaIiEExES5_ET1_T0_S7_S6_, symObjAddr: 0x389C, symBinAddr: 0x100008EEC, symSize: 0x2C }
  - { offset: 0x238BB, size: 0x8, addend: 0x0, symName: __ZSt12__niter_baseIPSt4pairISt6vectorIiSaIiEExEET_S6_, symObjAddr: 0x3888, symBinAddr: 0x100008ED8, symSize: 0x14 }
  - { offset: 0x238EE, size: 0x8, addend: 0x0, symName: __ZNSt12_Destroy_auxILb0EE9__destroyIN9__gnu_cxx17__normal_iteratorIPSt4pairISt6vectorIiSaIiEExES5_IS8_SaIS8_EEEEEEvT_SD_, symObjAddr: 0x3834, symBinAddr: 0x100008E84, symSize: 0x54 }
  - { offset: 0x23930, size: 0x8, addend: 0x0, symName: __ZSt12__niter_wrapIN9__gnu_cxx17__normal_iteratorIPSt4pairISt6vectorIiSaIiEExES3_IS6_SaIS6_EEEES7_ET_SB_T0_, symObjAddr: 0x37EC, symBinAddr: 0x100008E3C, symSize: 0x48 }
  - { offset: 0x2397D, size: 0x8, addend: 0x0, symName: __ZSt14__copy_move_a1ILb0EPKSt4pairISt6vectorIiSaIiEExEPS4_ET1_T0_S9_S8_, symObjAddr: 0x37C0, symBinAddr: 0x100008E10, symSize: 0x2C }
  - { offset: 0x239E5, size: 0x8, addend: 0x0, symName: __ZSt12__niter_baseIPSt4pairISt6vectorIiSaIiEExES1_IS4_SaIS4_EEET_N9__gnu_cxx17__normal_iteratorIS8_T0_EE, symObjAddr: 0x37A0, symBinAddr: 0x100008DF0, symSize: 0x20 }
  - { offset: 0x23A21, size: 0x8, addend: 0x0, symName: __ZSt12__niter_baseIPKSt4pairISt6vectorIiSaIiEExES1_IS4_SaIS4_EEET_N9__gnu_cxx17__normal_iteratorIS9_T0_EE, symObjAddr: 0x3780, symBinAddr: 0x100008DD0, symSize: 0x20 }
  - { offset: 0x23A5D, size: 0x8, addend: 0x0, symName: __ZSt18uninitialized_copyIN9__gnu_cxx17__normal_iteratorIPKSt4pairISt6vectorIiSaIiEExES3_IS6_SaIS6_EEEEPS6_ET0_T_SE_SD_, symObjAddr: 0x374C, symBinAddr: 0x100008D9C, symSize: 0x34 }
  - { offset: 0x23AFC, size: 0x8, addend: 0x0, symName: __ZSt12__relocate_aIPiS0_SaIiEET0_T_S3_S2_RT1_, symObjAddr: 0x36F0, symBinAddr: 0x100008D40, symSize: 0x5C }
  - { offset: 0x23B78, size: 0x8, addend: 0x0, symName: __ZNSt15__new_allocatorIiE10deallocateEPim, symObjAddr: 0x36C0, symBinAddr: 0x100008D10, symSize: 0x30 }
  - { offset: 0x23BC2, size: 0x8, addend: 0x0, symName: __ZNKSt6vectorIiSaIiEE8max_sizeEv, symObjAddr: 0x36A0, symBinAddr: 0x100008CF0, symSize: 0x20 }
  - { offset: 0x23BEC, size: 0x8, addend: 0x0, symName: __ZN9__gnu_cxx17__normal_iteratorIPiSt6vectorIiSaIiEEEppEv, symObjAddr: 0x3678, symBinAddr: 0x100008CC8, symSize: 0x28 }
  - { offset: 0x23C16, size: 0x8, addend: 0x0, symName: __ZN9__gnu_cxx5__ops16_Iter_equals_valIKiEclINS_17__normal_iteratorIPiSt6vectorIiSaIiEEEEEEbT_, symObjAddr: 0x363C, symBinAddr: 0x100008C8C, symSize: 0x3C }
  - { offset: 0x23C56, size: 0x8, addend: 0x0, symName: __ZNSt20__uninitialized_copyILb1EE13__uninit_copyIN9__gnu_cxx17__normal_iteratorIPKiSt6vectorIiSaIiEEEEPiEET0_T_SC_SB_, symObjAddr: 0x3610, symBinAddr: 0x100008C60, symSize: 0x2C }
  - { offset: 0x23CB5, size: 0x8, addend: 0x0, symName: __ZNK9__gnu_cxx17__normal_iteratorIPSt4pairISt6vectorIiSaIiEExES2_IS5_SaIS5_EEEmiEl, symObjAddr: 0x35CC, symBinAddr: 0x100008C1C, symSize: 0x44 }
  - { offset: 0x23CEC, size: 0x8, addend: 0x0, symName: __ZNSt6vectorISt4pairIS_IiSaIiEExESaIS3_EE11_S_relocateEPS3_S6_S6_RS4_, symObjAddr: 0x3598, symBinAddr: 0x100008BE8, symSize: 0x34 }
  - { offset: 0x23D49, size: 0x8, addend: 0x0, symName: __ZSt12__to_addressISt4pairISt6vectorIiSaIiEExEEPT_S6_, symObjAddr: 0x3584, symBinAddr: 0x100008BD4, symSize: 0x14 }
  - { offset: 0x23D81, size: 0x8, addend: 0x0, symName: __ZN9__gnu_cxxmiIPSt4pairISt6vectorIiSaIiEExES2_IS5_SaIS5_EEEENS_17__normal_iteratorIT_T0_E15difference_typeERKSC_SF_, symObjAddr: 0x3544, symBinAddr: 0x100008B94, symSize: 0x40 }
  - { offset: 0x23DD2, size: 0x8, addend: 0x0, symName: __ZNKSt6vectorISt4pairIS_IiSaIiEExESaIS3_EE12_M_check_lenEmPKc, symObjAddr: 0x3474, symBinAddr: 0x100008AC4, symSize: 0xD0 }
  - { offset: 0x23E90, size: 0x8, addend: 0x0, symName: __ZNSt4pairISt6vectorIiSaIiEExEC1EOS3_, symObjAddr: 0x343C, symBinAddr: 0x100008A8C, symSize: 0x38 }
  - { offset: 0x23EDE, size: 0x8, addend: 0x0, symName: __ZNSt6vectorIiSaIiEEC1EOS1_, symObjAddr: 0x3414, symBinAddr: 0x100008A64, symSize: 0x28 }
  - { offset: 0x23F2C, size: 0x8, addend: 0x0, symName: __ZNSt12_Vector_baseIiSaIiEEC2EOS1_, symObjAddr: 0x33EC, symBinAddr: 0x100008A3C, symSize: 0x28 }
  - { offset: 0x23F57, size: 0x8, addend: 0x0, symName: __ZNSt12_Destroy_auxILb1EE9__destroyIPiEEvT_S3_, symObjAddr: 0x33D4, symBinAddr: 0x100008A24, symSize: 0x18 }
  - { offset: 0x23F8B, size: 0x8, addend: 0x0, symName: __ZSt18uninitialized_copyIPKiPiET0_T_S4_S3_, symObjAddr: 0x3398, symBinAddr: 0x1000089E8, symSize: 0x3C }
  - { offset: 0x2402A, size: 0x8, addend: 0x0, symName: __ZNSt6vectorIiSaIiEE11_S_max_sizeERKS0_, symObjAddr: 0x3344, symBinAddr: 0x100008994, symSize: 0x54 }
  - { offset: 0x240FF, size: 0x8, addend: 0x0, symName: __ZNSt12_Vector_baseIiSaIiEE17_Vector_impl_dataC2Ev, symObjAddr: 0x3318, symBinAddr: 0x100008968, symSize: 0x2C }
  - { offset: 0x24144, size: 0x8, addend: 0x0, symName: __ZNSt12_Destroy_auxILb0EE9__destroyIPSt4pairISt6vectorIiSaIiEExEEEvT_S8_, symObjAddr: 0x32CC, symBinAddr: 0x10000891C, symSize: 0x4C }
  - { offset: 0x2418A, size: 0x8, addend: 0x0, symName: __ZNSt15__new_allocatorISt4pairISt6vectorIiSaIiEExEE10deallocateEPS4_m, symObjAddr: 0x329C, symBinAddr: 0x1000088EC, symSize: 0x30 }
  - { offset: 0x241D4, size: 0x8, addend: 0x0, symName: __ZNK9__gnu_cxx17__normal_iteratorIPSt4pairIixESt6vectorIS2_SaIS2_EEEmiEl, symObjAddr: 0x3258, symBinAddr: 0x1000088A8, symSize: 0x44 }
  - { offset: 0x2420F, size: 0x8, addend: 0x0, symName: __ZNSt12_Vector_baseISt4pairIixESaIS1_EE19_M_get_Tp_allocatorEv, symObjAddr: 0x3244, symBinAddr: 0x100008894, symSize: 0x14 }
  - { offset: 0x24235, size: 0x8, addend: 0x0, symName: __ZNSt6vectorISt4pairIixESaIS1_EE11_S_relocateEPS1_S4_S4_RS2_, symObjAddr: 0x3210, symBinAddr: 0x100008860, symSize: 0x34 }
  - { offset: 0x24292, size: 0x8, addend: 0x0, symName: __ZSt12__to_addressISt4pairIixEEPT_S3_, symObjAddr: 0x31FC, symBinAddr: 0x10000884C, symSize: 0x14 }
  - { offset: 0x242FA, size: 0x8, addend: 0x0, symName: __ZNSt12_Vector_baseISt4pairIixESaIS1_EE11_M_allocateEm, symObjAddr: 0x31AC, symBinAddr: 0x1000087FC, symSize: 0x50 }
  - { offset: 0x24364, size: 0x8, addend: 0x0, symName: __ZN9__gnu_cxxmiIPSt4pairIixESt6vectorIS2_SaIS2_EEEENS_17__normal_iteratorIT_T0_E15difference_typeERKSA_SD_, symObjAddr: 0x316C, symBinAddr: 0x1000087BC, symSize: 0x40 }
  - { offset: 0x243B5, size: 0x8, addend: 0x0, symName: __ZNKSt6vectorISt4pairIixESaIS1_EE12_M_check_lenEmPKc, symObjAddr: 0x309C, symBinAddr: 0x1000086EC, symSize: 0xD0 }
  - { offset: 0x24450, size: 0x8, addend: 0x0, symName: __ZNSt12_Destroy_auxILb0EE9__destroyIPSt6vectorISt4pairIixESaIS4_EEEEvT_S8_, symObjAddr: 0x3050, symBinAddr: 0x1000086A0, symSize: 0x4C }
  - { offset: 0x24492, size: 0x8, addend: 0x0, symName: __ZSt25__uninitialized_default_nIPSt6vectorISt4pairIixESaIS2_EEmET_S6_T0_, symObjAddr: 0x3024, symBinAddr: 0x100008674, symSize: 0x2C }
  - { offset: 0x24526, size: 0x8, addend: 0x0, symName: __ZNSt12_Vector_baseISt6vectorISt4pairIixESaIS2_EESaIS4_EE11_M_allocateEm, symObjAddr: 0x2FD4, symBinAddr: 0x100008624, symSize: 0x50 }
  - { offset: 0x245A8, size: 0x8, addend: 0x0, symName: __ZNSt12_Vector_baseISt6vectorISt4pairIixESaIS2_EESaIS4_EE17_Vector_impl_dataC2Ev, symObjAddr: 0x2FA8, symBinAddr: 0x1000085F8, symSize: 0x2C }
  - { offset: 0x245FB, size: 0x8, addend: 0x0, symName: __ZSt18uninitialized_copyIPSt4pairISt6vectorIiSaIiEExES5_ET0_T_S7_S6_, symObjAddr: 0x2F74, symBinAddr: 0x1000085C4, symSize: 0x34 }
  - { offset: 0x24676, size: 0x8, addend: 0x0, symName: __ZSt13__copy_move_aILb0EPSt4pairISt6vectorIiSaIiEExES5_ET1_T0_S7_S6_, symObjAddr: 0x2F14, symBinAddr: 0x100008564, symSize: 0x60 }
  - { offset: 0x246DE, size: 0x8, addend: 0x0, symName: __ZSt12__miter_baseIPSt4pairISt6vectorIiSaIiEExEET_S6_, symObjAddr: 0x2F00, symBinAddr: 0x100008550, symSize: 0x14 }
  - { offset: 0x24711, size: 0x8, addend: 0x0, symName: __ZSt8_DestroyIN9__gnu_cxx17__normal_iteratorIPSt4pairISt6vectorIiSaIiEExES3_IS6_SaIS6_EEEEEvT_SB_, symObjAddr: 0x2ED8, symBinAddr: 0x100008528, symSize: 0x28 }
  - { offset: 0x24753, size: 0x8, addend: 0x0, symName: __ZSt13__copy_move_aILb0EN9__gnu_cxx17__normal_iteratorIPKSt4pairISt6vectorIiSaIiEExES3_IS6_SaIS6_EEEENS1_IPS6_SA_EEET1_T0_SF_SE_, symObjAddr: 0x2E78, symBinAddr: 0x1000084C8, symSize: 0x60 }
  - { offset: 0x247BB, size: 0x8, addend: 0x0, symName: __ZSt12__miter_baseIN9__gnu_cxx17__normal_iteratorIPKSt4pairISt6vectorIiSaIiEExES3_IS6_SaIS6_EEEEET_SC_, symObjAddr: 0x2E64, symBinAddr: 0x1000084B4, symSize: 0x14 }
  - { offset: 0x247EE, size: 0x8, addend: 0x0, symName: __ZSt22__uninitialized_copy_aIN9__gnu_cxx17__normal_iteratorIPKSt4pairISt6vectorIiSaIiEExES3_IS6_SaIS6_EEEEPS6_S6_ET0_T_SE_SD_RSaIT1_E, symObjAddr: 0x2E34, symBinAddr: 0x100008484, symSize: 0x30 }
  - { offset: 0x24862, size: 0x8, addend: 0x0, symName: __ZNSt12_Vector_baseISt4pairISt6vectorIiSaIiEExESaIS4_EE11_M_allocateEm, symObjAddr: 0x2DE4, symBinAddr: 0x100008434, symSize: 0x50 }
  - { offset: 0x248CA, size: 0x8, addend: 0x0, symName: __ZNSt6vectorISt4pairIS_IiSaIiEExESaIS3_EE15_M_erase_at_endEPS3_, symObjAddr: 0x2D5C, symBinAddr: 0x1000083AC, symSize: 0x88 }
  - { offset: 0x2495B, size: 0x8, addend: 0x0, symName: __ZNSt6vectorIiSaIiEE11_S_relocateEPiS2_S2_RS0_, symObjAddr: 0x2D28, symBinAddr: 0x100008378, symSize: 0x34 }
  - { offset: 0x249B8, size: 0x8, addend: 0x0, symName: __ZSt12__to_addressIiEPT_S1_, symObjAddr: 0x2D14, symBinAddr: 0x100008364, symSize: 0x14 }
  - { offset: 0x24A22, size: 0x8, addend: 0x0, symName: __ZN9__gnu_cxxmiIPiSt6vectorIiSaIiEEEENS_17__normal_iteratorIT_T0_E15difference_typeERKS8_SB_, symObjAddr: 0x2CD4, symBinAddr: 0x100008324, symSize: 0x40 }
  - { offset: 0x24A73, size: 0x8, addend: 0x0, symName: __ZNKSt6vectorIiSaIiEE12_M_check_lenEmPKc, symObjAddr: 0x2C04, symBinAddr: 0x100008254, symSize: 0xD0 }
  - { offset: 0x24B14, size: 0x8, addend: 0x0, symName: __ZSt7forwardIRKiEOT_RNSt16remove_referenceIS2_E4typeE, symObjAddr: 0x2BF0, symBinAddr: 0x100008240, symSize: 0x14 }
  - { offset: 0x24B46, size: 0x8, addend: 0x0, symName: __ZSt9__find_ifIN9__gnu_cxx17__normal_iteratorIPiSt6vectorIiSaIiEEEENS0_5__ops16_Iter_equals_valIKiEEET_SB_SB_T0_St26random_access_iterator_tag, symObjAddr: 0x2A54, symBinAddr: 0x1000080A4, symSize: 0x19C }
  - { offset: 0x24C00, size: 0x8, addend: 0x0, symName: __ZN9__gnu_cxx5__ops16_Iter_equals_valIKiEC1ERS2_, symObjAddr: 0x2A30, symBinAddr: 0x100008080, symSize: 0x24 }
  - { offset: 0x24C2B, size: 0x8, addend: 0x0, symName: __ZSt18uninitialized_copyIN9__gnu_cxx17__normal_iteratorIPKiSt6vectorIiSaIiEEEEPiET0_T_SA_S9_, symObjAddr: 0x29F4, symBinAddr: 0x100008044, symSize: 0x3C }
  - { offset: 0x24CD2, size: 0x8, addend: 0x0, symName: __ZN9__gnu_cxx17__normal_iteratorIPKiSt6vectorIiSaIiEEEC1ERKS2_, symObjAddr: 0x29CC, symBinAddr: 0x10000801C, symSize: 0x28 }
  - { offset: 0x24D01, size: 0x8, addend: 0x0, symName: __ZNSt12_Vector_baseIiSaIiEE17_M_create_storageEm, symObjAddr: 0x296C, symBinAddr: 0x100007FBC, symSize: 0x60 }
  - { offset: 0x24D52, size: 0x8, addend: 0x0, symName: __ZNK9__gnu_cxx17__normal_iteratorIPKSt4pairISt6vectorIiSaIiEExES2_IS5_SaIS5_EEE4baseEv, symObjAddr: 0x2958, symBinAddr: 0x100007FA8, symSize: 0x14 }
  - { offset: 0x24DA4, size: 0x8, addend: 0x0, symName: __ZN9__gnu_cxx17__normal_iteratorIPKSt4pairISt6vectorIiSaIiEExES2_IS5_SaIS5_EEEC1ERKS7_, symObjAddr: 0x2930, symBinAddr: 0x100007F80, symSize: 0x28 }
  - { offset: 0x24DD3, size: 0x8, addend: 0x0, symName: __ZNSt6vectorISt4pairIS_IiSaIiEExESaIS3_EE4backEv, symObjAddr: 0x28F8, symBinAddr: 0x100007F48, symSize: 0x38 }
  - { offset: 0x24DFD, size: 0x8, addend: 0x0, symName: __ZNSt6vectorISt4pairIS_IiSaIiEExESaIS3_EE17_M_realloc_appendIJS3_EEEvDpOT_, symObjAddr: 0x2738, symBinAddr: 0x100007D88, symSize: 0x1C0 }
  - { offset: 0x24F81, size: 0x8, addend: 0x0, symName: __ZZNSt6vectorISt4pairIS_IiSaIiEExESaIS3_EE17_M_realloc_appendIJS3_EEEvDpOT_EN6_GuardC1EPS3_mRS4_, symObjAddr: 0x2694, symBinAddr: 0x100007CE4, symSize: 0x44 }
  - { offset: 0x24FC6, size: 0x8, addend: 0x0, symName: __ZZNSt6vectorISt4pairIS_IiSaIiEExESaIS3_EE17_M_realloc_appendIJS3_EEEvDpOT_EN6_GuardD1Ev, symObjAddr: 0x26D8, symBinAddr: 0x100007D28, symSize: 0x60 }
  - { offset: 0x250FF, size: 0x8, addend: 0x0, symName: __ZSt7forwardISt4pairISt6vectorIiSaIiEExEEOT_RNSt16remove_referenceIS5_E4typeE, symObjAddr: 0x2680, symBinAddr: 0x100007CD0, symSize: 0x14 }
  - { offset: 0x25131, size: 0x8, addend: 0x0, symName: __ZSt8_DestroyIPiEvT_S1_, symObjAddr: 0x2658, symBinAddr: 0x100007CA8, symSize: 0x28 }
  - { offset: 0x25173, size: 0x8, addend: 0x0, symName: __ZSt22__uninitialized_copy_aIPKiPiiET0_T_S4_S3_RSaIT1_E, symObjAddr: 0x2628, symBinAddr: 0x100007C78, symSize: 0x30 }
  - { offset: 0x251E7, size: 0x8, addend: 0x0, symName: __ZNSt12_Vector_baseIiSaIiEE11_M_allocateEm, symObjAddr: 0x25D8, symBinAddr: 0x100007C28, symSize: 0x50 }
  - { offset: 0x2524B, size: 0x8, addend: 0x0, symName: __ZNSt6vectorIiSaIiEE17_S_check_init_lenEmRKS0_, symObjAddr: 0x2554, symBinAddr: 0x100007BA4, symSize: 0x84 }
  - { offset: 0x25347, size: 0x8, addend: 0x0, symName: __ZNKSt16initializer_listIiE4sizeEv, symObjAddr: 0x253C, symBinAddr: 0x100007B8C, symSize: 0x18 }
  - { offset: 0x25371, size: 0x8, addend: 0x0, symName: __ZNSt12_Vector_baseIiSaIiEE13_M_deallocateEPim, symObjAddr: 0x24E4, symBinAddr: 0x100007B34, symSize: 0x58 }
  - { offset: 0x2541A, size: 0x8, addend: 0x0, symName: __ZNSt12_Vector_baseIiSaIiEE12_Vector_implC1ERKS0_, symObjAddr: 0x2498, symBinAddr: 0x100007AE8, symSize: 0x4C }
  - { offset: 0x2549D, size: 0x8, addend: 0x0, symName: __ZSt8_DestroyIPSt4pairISt6vectorIiSaIiEExEEvT_S6_, symObjAddr: 0x2470, symBinAddr: 0x100007AC0, symSize: 0x28 }
  - { offset: 0x2552B, size: 0x8, addend: 0x0, symName: __ZNSt6vectorISt4pairIixESaIS1_EE4backEv, symObjAddr: 0x2438, symBinAddr: 0x100007A88, symSize: 0x38 }
  - { offset: 0x25555, size: 0x8, addend: 0x0, symName: __ZNSt6vectorISt4pairIixESaIS1_EE17_M_realloc_appendIJS1_EEEvDpOT_, symObjAddr: 0x227C, symBinAddr: 0x1000078CC, symSize: 0x1BC }
  - { offset: 0x256D9, size: 0x8, addend: 0x0, symName: __ZZNSt6vectorISt4pairIixESaIS1_EE17_M_realloc_appendIJS1_EEEvDpOT_EN6_GuardC1EPS1_mRS2_, symObjAddr: 0x21D8, symBinAddr: 0x100007828, symSize: 0x44 }
  - { offset: 0x2571E, size: 0x8, addend: 0x0, symName: __ZZNSt6vectorISt4pairIixESaIS1_EE17_M_realloc_appendIJS1_EEEvDpOT_EN6_GuardD1Ev, symObjAddr: 0x221C, symBinAddr: 0x10000786C, symSize: 0x60 }
  - { offset: 0x25857, size: 0x8, addend: 0x0, symName: __ZSt7forwardISt4pairIixEEOT_RNSt16remove_referenceIS2_E4typeE, symObjAddr: 0x21C4, symBinAddr: 0x100007814, symSize: 0x14 }
  - { offset: 0x25889, size: 0x8, addend: 0x0, symName: __ZSt8_DestroyIPSt6vectorISt4pairIixESaIS2_EEEvT_S6_, symObjAddr: 0x219C, symBinAddr: 0x1000077EC, symSize: 0x28 }
  - { offset: 0x258CB, size: 0x8, addend: 0x0, symName: __ZSt27__uninitialized_default_n_aIPSt6vectorISt4pairIixESaIS2_EEmS4_ET_S6_T0_RSaIT1_E, symObjAddr: 0x2174, symBinAddr: 0x1000077C4, symSize: 0x28 }
  - { offset: 0x2592E, size: 0x8, addend: 0x0, symName: __ZNSt12_Vector_baseISt6vectorISt4pairIixESaIS2_EESaIS4_EE13_M_deallocateEPS4_m, symObjAddr: 0x211C, symBinAddr: 0x10000776C, symSize: 0x58 }
  - { offset: 0x259B0, size: 0x8, addend: 0x0, symName: __ZNSt12_Vector_baseISt6vectorISt4pairIixESaIS2_EESaIS4_EE17_M_create_storageEm, symObjAddr: 0x20B0, symBinAddr: 0x100007700, symSize: 0x6C }
  - { offset: 0x25A12, size: 0x8, addend: 0x0, symName: __ZNSt12_Vector_baseISt6vectorISt4pairIixESaIS2_EESaIS4_EE12_Vector_implC1ERKS5_, symObjAddr: 0x2064, symBinAddr: 0x1000076B4, symSize: 0x4C }
  - { offset: 0x25AB8, size: 0x8, addend: 0x0, symName: __ZNSt6vectorIS_ISt4pairIixESaIS1_EESaIS3_EE11_S_max_sizeERKS4_, symObjAddr: 0x2008, symBinAddr: 0x100007658, symSize: 0x5C }
  - { offset: 0x25B6F, size: 0x8, addend: 0x0, symName: __ZSt22__uninitialized_copy_aIPSt4pairISt6vectorIiSaIiEExES5_S4_ET0_T_S7_S6_RSaIT1_E, symObjAddr: 0x1FD8, symBinAddr: 0x100007628, symSize: 0x30 }
  - { offset: 0x25BDF, size: 0x8, addend: 0x0, symName: __ZSt4copyIPSt4pairISt6vectorIiSaIiEExES5_ET0_T_S7_S6_, symObjAddr: 0x1F90, symBinAddr: 0x1000075E0, symSize: 0x48 }
  - { offset: 0x25C78, size: 0x8, addend: 0x0, symName: __ZSt4copyIN9__gnu_cxx17__normal_iteratorIPKSt4pairISt6vectorIiSaIiEExES3_IS6_SaIS6_EEEENS1_IPS6_SA_EEET0_T_SF_SE_, symObjAddr: 0x1F48, symBinAddr: 0x100007598, symSize: 0x48 }
  - { offset: 0x25CDA, size: 0x8, addend: 0x0, symName: __ZNSt6vectorISt4pairIS_IiSaIiEExESaIS3_EE20_M_allocate_and_copyIN9__gnu_cxx17__normal_iteratorIPKS3_S5_EEEEPS3_mT_SD_, symObjAddr: 0x1EC4, symBinAddr: 0x100007514, symSize: 0x84 }
  - { offset: 0x25D51, size: 0x8, addend: 0x0, symName: __ZNKSt6vectorISt4pairIS_IiSaIiEExESaIS3_EE8capacityEv, symObjAddr: 0x1E9C, symBinAddr: 0x1000074EC, symSize: 0x28 }
  - { offset: 0x25D7B, size: 0x8, addend: 0x0, symName: __ZNKSt6vectorISt4pairIS_IiSaIiEExESaIS3_EE4sizeEv, symObjAddr: 0x1E74, symBinAddr: 0x1000074C4, symSize: 0x28 }
  - { offset: 0x25DD2, size: 0x8, addend: 0x0, symName: __ZNSt6vectorISt4pairIS_IiSaIiEExESaIS3_EE5clearEv, symObjAddr: 0x1E48, symBinAddr: 0x100007498, symSize: 0x2C }
  - { offset: 0x25E0E, size: 0x8, addend: 0x0, symName: __ZNKSt12_Vector_baseISt4pairISt6vectorIiSaIiEExESaIS4_EE19_M_get_Tp_allocatorEv, symObjAddr: 0x1E34, symBinAddr: 0x100007484, symSize: 0x14 }
  - { offset: 0x25E38, size: 0x8, addend: 0x0, symName: __ZNSt6vectorIiSaIiEE17_M_realloc_appendIJRKiEEEvDpOT_, symObjAddr: 0x1C78, symBinAddr: 0x1000072C8, symSize: 0x1BC }
  - { offset: 0x25FBC, size: 0x8, addend: 0x0, symName: __ZZNSt6vectorIiSaIiEE17_M_realloc_appendIJRKiEEEvDpOT_EN6_GuardC1EPimRS0_, symObjAddr: 0x1BD4, symBinAddr: 0x100007224, symSize: 0x44 }
  - { offset: 0x26001, size: 0x8, addend: 0x0, symName: __ZZNSt6vectorIiSaIiEE17_M_realloc_appendIJRKiEEEvDpOT_EN6_GuardD1Ev, symObjAddr: 0x1C18, symBinAddr: 0x100007268, symSize: 0x60 }
  - { offset: 0x26138, size: 0x8, addend: 0x0, symName: __ZNK9__gnu_cxx17__normal_iteratorIPiSt6vectorIiSaIiEEE4baseEv, symObjAddr: 0x1BC0, symBinAddr: 0x100007210, symSize: 0x14 }
  - { offset: 0x2615E, size: 0x8, addend: 0x0, symName: __ZSt9__find_ifIN9__gnu_cxx17__normal_iteratorIPiSt6vectorIiSaIiEEEENS0_5__ops16_Iter_equals_valIKiEEET_SB_SB_T0_, symObjAddr: 0x1B90, symBinAddr: 0x1000071E0, symSize: 0x30 }
  - { offset: 0x261DD, size: 0x8, addend: 0x0, symName: __ZN9__gnu_cxx5__ops17__iter_equals_valIKiEENS0_16_Iter_equals_valIT_EERS4_, symObjAddr: 0x1B6C, symBinAddr: 0x1000071BC, symSize: 0x24 }
  - { offset: 0x2623C, size: 0x8, addend: 0x0, symName: __ZN9__gnu_cxx17__normal_iteratorIPiSt6vectorIiSaIiEEEC1ERKS1_, symObjAddr: 0x1B44, symBinAddr: 0x100007194, symSize: 0x28 }
  - { offset: 0x2626B, size: 0x8, addend: 0x0, symName: __ZNK9__gnu_cxx17__normal_iteratorIPiSt6vectorIiSaIiEEEdeEv, symObjAddr: 0x1B2C, symBinAddr: 0x10000717C, symSize: 0x18 }
  - { offset: 0x26295, size: 0x8, addend: 0x0, symName: __ZNK9__gnu_cxx17__normal_iteratorIPiSt6vectorIiSaIiEEEmiEl, symObjAddr: 0x1AE8, symBinAddr: 0x100007138, symSize: 0x44 }
  - { offset: 0x262CC, size: 0x8, addend: 0x0, symName: __ZSt22__uninitialized_copy_aIN9__gnu_cxx17__normal_iteratorIPKiSt6vectorIiSaIiEEEEPiiET0_T_SA_S9_RSaIT1_E, symObjAddr: 0x1AB8, symBinAddr: 0x100007108, symSize: 0x30 }
  - { offset: 0x26340, size: 0x8, addend: 0x0, symName: __ZNKSt6vectorIiSaIiEE3endEv, symObjAddr: 0x1A90, symBinAddr: 0x1000070E0, symSize: 0x28 }
  - { offset: 0x2636A, size: 0x8, addend: 0x0, symName: __ZNKSt6vectorIiSaIiEE5beginEv, symObjAddr: 0x1A6C, symBinAddr: 0x1000070BC, symSize: 0x24 }
  - { offset: 0x263CA, size: 0x8, addend: 0x0, symName: __ZNSt12_Vector_baseIiSaIiEEC2EmRKS0_, symObjAddr: 0x1A18, symBinAddr: 0x100007068, symSize: 0x54 }
  - { offset: 0x26417, size: 0x8, addend: 0x0, symName: __ZNKSt12_Vector_baseIiSaIiEE19_M_get_Tp_allocatorEv, symObjAddr: 0x1A04, symBinAddr: 0x100007054, symSize: 0x14 }
  - { offset: 0x26441, size: 0x8, addend: 0x0, symName: __ZNKSt6vectorIiSaIiEE4sizeEv, symObjAddr: 0x19DC, symBinAddr: 0x10000702C, symSize: 0x28 }
  - { offset: 0x2646B, size: 0x8, addend: 0x0, symName: __ZNK9__gnu_cxx17__normal_iteratorIPSt4pairISt6vectorIiSaIiEExES2_IS5_SaIS5_EEE4baseEv, symObjAddr: 0x19C8, symBinAddr: 0x100007018, symSize: 0x14 }
  - { offset: 0x264BD, size: 0x8, addend: 0x0, symName: __ZN9__gnu_cxx17__normal_iteratorIPSt4pairISt6vectorIiSaIiEExES2_IS5_SaIS5_EEEC1ERKS6_, symObjAddr: 0x19A0, symBinAddr: 0x100006FF0, symSize: 0x28 }
  - { offset: 0x264E8, size: 0x8, addend: 0x0, symName: __ZN9__gnu_cxxeqIPKSt4pairISt6vectorIiSaIiEExES2_IS5_SaIS5_EEEEbRKNS_17__normal_iteratorIT_T0_EESF_, symObjAddr: 0x195C, symBinAddr: 0x100006FAC, symSize: 0x44 }
  - { offset: 0x26539, size: 0x8, addend: 0x0, symName: __ZNKSt6vectorISt4pairIS_IiSaIiEExESaIS3_EE3endEv, symObjAddr: 0x1934, symBinAddr: 0x100006F84, symSize: 0x28 }
  - { offset: 0x26563, size: 0x8, addend: 0x0, symName: __ZNKSt6vectorISt4pairIS_IiSaIiEExESaIS3_EE5beginEv, symObjAddr: 0x1910, symBinAddr: 0x100006F60, symSize: 0x24 }
  - { offset: 0x2658D, size: 0x8, addend: 0x0, symName: __ZNSt6vectorISt4pairIS_IiSaIiEExESaIS3_EE12emplace_backIJS3_EEERS3_DpOT_, symObjAddr: 0x1834, symBinAddr: 0x100006E84, symSize: 0xDC }
  - { offset: 0x2663E, size: 0x8, addend: 0x0, symName: __ZSt4moveIRSt4pairISt6vectorIiSaIiEExEEONSt16remove_referenceIT_E4typeEOS7_, symObjAddr: 0x1820, symBinAddr: 0x100006E70, symSize: 0x14 }
  - { offset: 0x26676, size: 0x8, addend: 0x0, symName: __ZSt7forwardIRSt6vectorIiSaIiEEEOT_RNSt16remove_referenceIS4_E4typeE, symObjAddr: 0x180C, symBinAddr: 0x100006E5C, symSize: 0x14 }
  - { offset: 0x266E7, size: 0x8, addend: 0x0, symName: __ZNSt12_Vector_baseIiSaIiEE19_M_get_Tp_allocatorEv, symObjAddr: 0x17F8, symBinAddr: 0x100006E48, symSize: 0x14 }
  - { offset: 0x26711, size: 0x8, addend: 0x0, symName: __ZNSt6vectorIiSaIiEE19_M_range_initializeIPKiEEvT_S5_St20forward_iterator_tag, symObjAddr: 0x1714, symBinAddr: 0x100006D64, symSize: 0xE4 }
  - { offset: 0x2682F, size: 0x8, addend: 0x0, symName: __ZNKSt16initializer_listIiE3endEv, symObjAddr: 0x16DC, symBinAddr: 0x100006D2C, symSize: 0x38 }
  - { offset: 0x26859, size: 0x8, addend: 0x0, symName: __ZNKSt16initializer_listIiE5beginEv, symObjAddr: 0x16C4, symBinAddr: 0x100006D14, symSize: 0x18 }
  - { offset: 0x268A7, size: 0x8, addend: 0x0, symName: __ZNSt12_Vector_baseIiSaIiEED2Ev, symObjAddr: 0x1674, symBinAddr: 0x100006CC4, symSize: 0x50 }
  - { offset: 0x268F5, size: 0x8, addend: 0x0, symName: __ZNSt12_Vector_baseIiSaIiEEC2ERKS0_, symObjAddr: 0x164C, symBinAddr: 0x100006C9C, symSize: 0x28 }
  - { offset: 0x2694B, size: 0x8, addend: 0x0, symName: __ZNSt12_Vector_baseIiSaIiEE12_Vector_implD1Ev, symObjAddr: 0x1620, symBinAddr: 0x100006C70, symSize: 0x2C }
  - { offset: 0x269B8, size: 0x8, addend: 0x0, symName: __ZNSt15__new_allocatorIiED2Ev, symObjAddr: 0x160C, symBinAddr: 0x100006C5C, symSize: 0x14 }
  - { offset: 0x269F4, size: 0x8, addend: 0x0, symName: __ZNK9__gnu_cxx17__normal_iteratorIPSt4pairIixESt6vectorIS2_SaIS2_EEE4baseEv, symObjAddr: 0x15F8, symBinAddr: 0x100006C48, symSize: 0x14 }
  - { offset: 0x26A46, size: 0x8, addend: 0x0, symName: __ZN9__gnu_cxx17__normal_iteratorIPSt4pairIixESt6vectorIS2_SaIS2_EEEC1ERKS3_, symObjAddr: 0x15D0, symBinAddr: 0x100006C20, symSize: 0x28 }
  - { offset: 0x26AB0, size: 0x8, addend: 0x0, symName: __ZNSt12_Vector_baseISt4pairISt6vectorIiSaIiEExESaIS4_EE19_M_get_Tp_allocatorEv, symObjAddr: 0x15BC, symBinAddr: 0x100006C0C, symSize: 0x14 }
  - { offset: 0x26ADA, size: 0x8, addend: 0x0, symName: __ZNSt12_Vector_baseISt4pairISt6vectorIiSaIiEExESaIS4_EE13_M_deallocateEPS4_m, symObjAddr: 0x1564, symBinAddr: 0x100006BB4, symSize: 0x58 }
  - { offset: 0x26B80, size: 0x8, addend: 0x0, symName: __ZNSt15__new_allocatorISt4pairISt6vectorIiSaIiEExEED2Ev, symObjAddr: 0x1550, symBinAddr: 0x100006BA0, symSize: 0x14 }
  - { offset: 0x26BC0, size: 0x8, addend: 0x0, symName: __ZNSt12_Vector_baseISt4pairISt6vectorIiSaIiEExESaIS4_EE17_Vector_impl_dataC2Ev, symObjAddr: 0x1524, symBinAddr: 0x100006B74, symSize: 0x2C }
  - { offset: 0x26BFC, size: 0x8, addend: 0x0, symName: __ZNSt6vectorISt4pairIixESaIS1_EE12emplace_backIJS1_EEERS1_DpOT_, symObjAddr: 0x144C, symBinAddr: 0x100006A9C, symSize: 0xD8 }
  - { offset: 0x26CAD, size: 0x8, addend: 0x0, symName: __ZSt4moveIRSt4pairIixEEONSt16remove_referenceIT_E4typeEOS4_, symObjAddr: 0x1438, symBinAddr: 0x100006A88, symSize: 0x14 }
  - { offset: 0x26CE5, size: 0x8, addend: 0x0, symName: __ZSt7forwardIRxEOT_RNSt16remove_referenceIS1_E4typeE, symObjAddr: 0x1424, symBinAddr: 0x100006A74, symSize: 0x14 }
  - { offset: 0x26D1D, size: 0x8, addend: 0x0, symName: __ZSt7forwardIRiEOT_RNSt16remove_referenceIS1_E4typeE, symObjAddr: 0x1410, symBinAddr: 0x100006A60, symSize: 0x14 }
  - { offset: 0x26D8E, size: 0x8, addend: 0x0, symName: __ZNSt12_Vector_baseISt6vectorISt4pairIixESaIS2_EESaIS4_EE19_M_get_Tp_allocatorEv, symObjAddr: 0x13FC, symBinAddr: 0x100006A4C, symSize: 0x14 }
  - { offset: 0x26DB8, size: 0x8, addend: 0x0, symName: __ZNSt6vectorIS_ISt4pairIixESaIS1_EESaIS3_EE21_M_default_initializeEm, symObjAddr: 0x13AC, symBinAddr: 0x1000069FC, symSize: 0x50 }
  - { offset: 0x26E17, size: 0x8, addend: 0x0, symName: __ZNSt12_Vector_baseISt6vectorISt4pairIixESaIS2_EESaIS4_EED2Ev, symObjAddr: 0x1350, symBinAddr: 0x1000069A0, symSize: 0x5C }
  - { offset: 0x26E73, size: 0x8, addend: 0x0, symName: __ZNSt12_Vector_baseISt6vectorISt4pairIixESaIS2_EESaIS4_EEC2EmRKS5_, symObjAddr: 0x12FC, symBinAddr: 0x10000694C, symSize: 0x54 }
  - { offset: 0x26ED2, size: 0x8, addend: 0x0, symName: __ZNSt12_Vector_baseISt6vectorISt4pairIixESaIS2_EESaIS4_EE12_Vector_implD1Ev, symObjAddr: 0x12D0, symBinAddr: 0x100006920, symSize: 0x2C }
  - { offset: 0x26F17, size: 0x8, addend: 0x0, symName: __ZNSt6vectorIS_ISt4pairIixESaIS1_EESaIS3_EE17_S_check_init_lenEmRKS4_, symObjAddr: 0x124C, symBinAddr: 0x10000689C, symSize: 0x84 }
  - { offset: 0x26FF1, size: 0x8, addend: 0x0, symName: __ZNSt15__new_allocatorISt6vectorISt4pairIixESaIS2_EEED2Ev, symObjAddr: 0x1238, symBinAddr: 0x100006888, symSize: 0x14 }
  - { offset: 0x2702D, size: 0x8, addend: 0x0, symName: __ZNSt6vectorISt4pairIS_IiSaIiEExESaIS3_EEaSERKS5_, symObjAddr: 0xEF0, symBinAddr: 0x100006540, symSize: 0x348 }
  - { offset: 0x271B1, size: 0x8, addend: 0x0, symName: __ZSt11__addressofIKSt6vectorISt4pairIS0_IiSaIiEExESaIS4_EEEPT_RS8_, symObjAddr: 0xEDC, symBinAddr: 0x10000652C, symSize: 0x14 }
  - { offset: 0x271E7, size: 0x8, addend: 0x0, symName: __ZNSt6vectorIiSaIiEE9push_backERKi, symObjAddr: 0xE14, symBinAddr: 0x100006464, symSize: 0xC8 }
  - { offset: 0x2728A, size: 0x8, addend: 0x0, symName: __ZN9__gnu_cxxneIPiSt6vectorIiSaIiEEEEbRKNS_17__normal_iteratorIT_T0_EESA_, symObjAddr: 0xDD0, symBinAddr: 0x100006420, symSize: 0x44 }
  - { offset: 0x272D7, size: 0x8, addend: 0x0, symName: __ZSt4findIN9__gnu_cxx17__normal_iteratorIPiSt6vectorIiSaIiEEEEiET_S7_S7_RKT0_, symObjAddr: 0xD9C, symBinAddr: 0x1000063EC, symSize: 0x34 }
  - { offset: 0x27339, size: 0x8, addend: 0x0, symName: __ZNSt6vectorIiSaIiEE3endEv, symObjAddr: 0xD74, symBinAddr: 0x1000063C4, symSize: 0x28 }
  - { offset: 0x27363, size: 0x8, addend: 0x0, symName: __ZNSt6vectorIiSaIiEE5beginEv, symObjAddr: 0xD50, symBinAddr: 0x1000063A0, symSize: 0x24 }
  - { offset: 0x27389, size: 0x8, addend: 0x0, symName: __ZSt3minIxERKT_S2_S2_, symObjAddr: 0xD18, symBinAddr: 0x100006368, symSize: 0x38 }
  - { offset: 0x273CF, size: 0x8, addend: 0x0, symName: __ZNSt6vectorIiSaIiEE4backEv, symObjAddr: 0xCE0, symBinAddr: 0x100006330, symSize: 0x38 }
  - { offset: 0x27421, size: 0x8, addend: 0x0, symName: __ZNSt6vectorIiSaIiEEC1ERKS1_, symObjAddr: 0xBCC, symBinAddr: 0x10000621C, symSize: 0x114 }
  - { offset: 0x27534, size: 0x8, addend: 0x0, symName: __ZNK9__gnu_cxx17__normal_iteratorIPSt4pairISt6vectorIiSaIiEExES2_IS5_SaIS5_EEEdeEv, symObjAddr: 0xBB4, symBinAddr: 0x100006204, symSize: 0x18 }
  - { offset: 0x2755E, size: 0x8, addend: 0x0, symName: __ZN9__gnu_cxx17__normal_iteratorIPSt4pairISt6vectorIiSaIiEExES2_IS5_SaIS5_EEEppEv, symObjAddr: 0xB8C, symBinAddr: 0x1000061DC, symSize: 0x28 }
  - { offset: 0x27584, size: 0x8, addend: 0x0, symName: __ZN9__gnu_cxxneIPSt4pairISt6vectorIiSaIiEExES2_IS5_SaIS5_EEEEbRKNS_17__normal_iteratorIT_T0_EESE_, symObjAddr: 0xB48, symBinAddr: 0x100006198, symSize: 0x44 }
  - { offset: 0x275D5, size: 0x8, addend: 0x0, symName: __ZNSt6vectorISt4pairIS_IiSaIiEExESaIS3_EE3endEv, symObjAddr: 0xB20, symBinAddr: 0x100006170, symSize: 0x28 }
  - { offset: 0x275FF, size: 0x8, addend: 0x0, symName: __ZNSt6vectorISt4pairIS_IiSaIiEExESaIS3_EE5beginEv, symObjAddr: 0xAFC, symBinAddr: 0x10000614C, symSize: 0x24 }
  - { offset: 0x27629, size: 0x8, addend: 0x0, symName: __ZNKSt6vectorISt4pairIS_IiSaIiEExESaIS3_EE5emptyEv, symObjAddr: 0xAC4, symBinAddr: 0x100006114, symSize: 0x38 }
  - { offset: 0x27653, size: 0x8, addend: 0x0, symName: __ZNSt6vectorISt4pairIS_IiSaIiEExESaIS3_EE9push_backEOS3_, symObjAddr: 0xA94, symBinAddr: 0x1000060E4, symSize: 0x30 }
  - { offset: 0x276D6, size: 0x8, addend: 0x0, symName: __ZNSt4pairISt6vectorIiSaIiEExEC1IRS2_RxLb1EEEOT_OT0_, symObjAddr: 0xA40, symBinAddr: 0x100006090, symSize: 0x54 }
  - { offset: 0x27744, size: 0x8, addend: 0x0, symName: __ZNSt6vectorIiSaIiEED1Ev, symObjAddr: 0x9E4, symBinAddr: 0x100006034, symSize: 0x5C }
  - { offset: 0x277D6, size: 0x8, addend: 0x0, symName: __ZNSt6vectorIiSaIiEEC1ESt16initializer_listIiERKS0_, symObjAddr: 0x974, symBinAddr: 0x100005FC4, symSize: 0x70 }
  - { offset: 0x27844, size: 0x8, addend: 0x0, symName: __ZNK9__gnu_cxx17__normal_iteratorIPSt4pairIixESt6vectorIS2_SaIS2_EEEdeEv, symObjAddr: 0x95C, symBinAddr: 0x100005FAC, symSize: 0x18 }
  - { offset: 0x2786E, size: 0x8, addend: 0x0, symName: __ZN9__gnu_cxx17__normal_iteratorIPSt4pairIixESt6vectorIS2_SaIS2_EEEppEv, symObjAddr: 0x934, symBinAddr: 0x100005F84, symSize: 0x28 }
  - { offset: 0x27894, size: 0x8, addend: 0x0, symName: __ZN9__gnu_cxxneIPSt4pairIixESt6vectorIS2_SaIS2_EEEEbRKNS_17__normal_iteratorIT_T0_EESC_, symObjAddr: 0x8F0, symBinAddr: 0x100005F40, symSize: 0x44 }
  - { offset: 0x278E5, size: 0x8, addend: 0x0, symName: __ZNSt6vectorISt4pairIixESaIS1_EE3endEv, symObjAddr: 0x8C8, symBinAddr: 0x100005F18, symSize: 0x28 }
  - { offset: 0x2790F, size: 0x8, addend: 0x0, symName: __ZNSt6vectorISt4pairIixESaIS1_EE5beginEv, symObjAddr: 0x8A4, symBinAddr: 0x100005EF4, symSize: 0x24 }
  - { offset: 0x2795D, size: 0x8, addend: 0x0, symName: __ZNSt6vectorISt4pairIS_IiSaIiEExESaIS3_EED1Ev, symObjAddr: 0x848, symBinAddr: 0x100005E98, symSize: 0x5C }
  - { offset: 0x279DD, size: 0x8, addend: 0x0, symName: __ZNSt12_Vector_baseISt4pairISt6vectorIiSaIiEExESaIS4_EED2Ev, symObjAddr: 0x7F8, symBinAddr: 0x100005E48, symSize: 0x50 }
  - { offset: 0x27A3D, size: 0x8, addend: 0x0, symName: __ZNSt12_Vector_baseISt4pairISt6vectorIiSaIiEExESaIS4_EE12_Vector_implC1Ev, symObjAddr: 0x7C0, symBinAddr: 0x100005E10, symSize: 0x38 }
  - { offset: 0x27AA9, size: 0x8, addend: 0x0, symName: __ZNSt6vectorISt4pairIixESaIS1_EE9push_backEOS1_, symObjAddr: 0x790, symBinAddr: 0x100005DE0, symSize: 0x30 }
  - { offset: 0x27B2C, size: 0x8, addend: 0x0, symName: __ZNSt4pairIixEC1IRiRxLb1EEEOT_OT0_, symObjAddr: 0x748, symBinAddr: 0x100005D98, symSize: 0x48 }
  - { offset: 0x27B76, size: 0x8, addend: 0x0, symName: __ZNSt6vectorIS_ISt4pairIixESaIS1_EESaIS3_EEixEm, symObjAddr: 0x714, symBinAddr: 0x100005D64, symSize: 0x34 }
  - { offset: 0x27BD5, size: 0x8, addend: 0x0, symName: __ZNSt6vectorIS_ISt4pairIixESaIS1_EESaIS3_EED1Ev, symObjAddr: 0x6B8, symBinAddr: 0x100005D08, symSize: 0x5C }
  - { offset: 0x27C67, size: 0x8, addend: 0x0, symName: __ZNSt6vectorIS_ISt4pairIixESaIS1_EESaIS3_EEC1EmRKS4_, symObjAddr: 0x650, symBinAddr: 0x100005CA0, symSize: 0x68 }
  - { offset: 0x27CD1, size: 0x8, addend: 0x0, symName: __ZSt3maxImERKT_S2_S2_, symObjAddr: 0x618, symBinAddr: 0x100005C68, symSize: 0x38 }
  - { offset: 0x27D1C, size: 0x8, addend: 0x0, symName: _main, symObjAddr: 0xF4, symBinAddr: 0x100005744, symSize: 0x524 }
  - { offset: 0x2809B, size: 0x8, addend: 0x0, symName: __ZNSt4pairISt6vectorIiSaIiEExED1Ev, symObjAddr: 0xD4, symBinAddr: 0x100005724, symSize: 0x20 }
  - { offset: 0x280E2, size: 0x8, addend: 0x0, symName: __ZNSt6vectorISt4pairIS_IiSaIiEExESaIS3_EEC1Ev, symObjAddr: 0xB4, symBinAddr: 0x100005704, symSize: 0x20 }
  - { offset: 0x28122, size: 0x8, addend: 0x0, symName: __ZNSt12_Vector_baseISt4pairISt6vectorIiSaIiEExESaIS4_EEC2Ev, symObjAddr: 0x94, symBinAddr: 0x1000056E4, symSize: 0x20 }
  - { offset: 0x2816F, size: 0x8, addend: 0x0, symName: __ZNSt12_Vector_baseISt4pairISt6vectorIiSaIiEExESaIS4_EE12_Vector_implD1Ev, symObjAddr: 0x68, symBinAddr: 0x1000056B8, symSize: 0x2C }
  - { offset: 0x281B4, size: 0x8, addend: 0x0, symName: __ZSt3minImERKT_S2_S2_, symObjAddr: 0x30, symBinAddr: 0x100005680, symSize: 0x38 }
  - { offset: 0x281FD, size: 0x8, addend: 0x0, symName: __ZdlPvS_, symObjAddr: 0x18, symBinAddr: 0x100005668, symSize: 0x18 }
  - { offset: 0x28233, size: 0x8, addend: 0x0, symName: __ZnwmPv, symObjAddr: 0x0, symBinAddr: 0x100005650, symSize: 0x18 }
...
