---
triple:          'arm64-apple-darwin'
binary-path:     '/Users/akihiro/c-practice/C++practice/kashimaB'
relocations:
  - { offset: 0x18DE8, size: 0x8, addend: 0x0, symName: __ZStL8__ioinit, symObjAddr: 0x7C1D0, symBinAddr: 0x10000C260, symSize: 0x0 }
  - { offset: 0x191EE, size: 0x8, addend: 0x0, symName: __GLOBAL__sub_I_kashimaB.cpp, symObjAddr: 0x1E48, symBinAddr: 0x100006590, symSize: 0x14 }
  - { offset: 0x19206, size: 0x8, addend: 0x0, symName: __Z41__static_initialization_and_destruction_0v, symObjAddr: 0x1E0C, symBinAddr: 0x100006554, symSize: 0x3C }
  - { offset: 0x1921E, size: 0x8, addend: 0x0, symName: __ZNSt20__copy_move_backwardILb1ELb0ESt26random_access_iterator_tagE13__copy_move_bIPNSt7__cxx1112basic_stringIcSt11char_traitsIcESaIcEEES9_EET0_T_SB_SA_, symObjAddr: 0x1CD8, symBinAddr: 0x1000064D8, symSize: 0x7C }
  - { offset: 0x19291, size: 0x8, addend: 0x0, symName: __ZN9__gnu_cxx5__ops14_Iter_comp_valIZ4mainEUlRKNSt7__cxx1112basic_stringIcSt11char_traitsIcESaIcEEES9_E_EclINS_17__normal_iteratorIPS7_St6vectorIS7_SaIS7_EEEES7_EEbT_RT0_, symObjAddr: 0x1C98, symBinAddr: 0x100006498, symSize: 0x40 }
  - { offset: 0x192E9, size: 0x8, addend: 0x0, symName: __ZSt12__niter_baseIPNSt7__cxx1112basic_stringIcSt11char_traitsIcESaIcEEEET_S7_, symObjAddr: 0x1C84, symBinAddr: 0x100006484, symSize: 0x14 }
  - { offset: 0x1931C, size: 0x8, addend: 0x0, symName: __ZSt23__copy_move_backward_a2ILb1EPNSt7__cxx1112basic_stringIcSt11char_traitsIcESaIcEEES6_ET1_T0_S8_S7_, symObjAddr: 0x1C58, symBinAddr: 0x100006458, symSize: 0x2C }
  - { offset: 0x1938A, size: 0x8, addend: 0x0, symName: __ZSt11__push_heapIN9__gnu_cxx17__normal_iteratorIPNSt7__cxx1112basic_stringIcSt11char_traitsIcESaIcEEESt6vectorIS7_SaIS7_EEEElS7_NS0_5__ops14_Iter_comp_valIZ4mainEUlRKS7_SG_E_EEEvT_T0_SK_T1_RT2_, symObjAddr: 0x1B30, symBinAddr: 0x100006330, symSize: 0x128 }
  - { offset: 0x19450, size: 0x8, addend: 0x0, symName: __ZN9__gnu_cxx5__ops14_Iter_comp_valIZ4mainEUlRKNSt7__cxx1112basic_stringIcSt11char_traitsIcESaIcEEES9_E_EC1EONS0_15_Iter_comp_iterISA_EE, symObjAddr: 0x1B0C, symBinAddr: 0x10000630C, symSize: 0x24 }
  - { offset: 0x1947B, size: 0x8, addend: 0x0, symName: __ZSt12__niter_wrapIN9__gnu_cxx17__normal_iteratorIPNSt7__cxx1112basic_stringIcSt11char_traitsIcESaIcEEESt6vectorIS7_SaIS7_EEEES8_ET_SD_T0_, symObjAddr: 0x1AC4, symBinAddr: 0x1000062C4, symSize: 0x48 }
  - { offset: 0x194C8, size: 0x8, addend: 0x0, symName: __ZSt23__copy_move_backward_a1ILb1EPNSt7__cxx1112basic_stringIcSt11char_traitsIcESaIcEEES6_ET1_T0_S8_S7_, symObjAddr: 0x1A98, symBinAddr: 0x100006298, symSize: 0x2C }
  - { offset: 0x19530, size: 0x8, addend: 0x0, symName: __ZSt12__niter_baseIPNSt7__cxx1112basic_stringIcSt11char_traitsIcESaIcEEESt6vectorIS5_SaIS5_EEET_N9__gnu_cxx17__normal_iteratorISA_T0_EE, symObjAddr: 0x1A78, symBinAddr: 0x100006278, symSize: 0x20 }
  - { offset: 0x1956C, size: 0x8, addend: 0x0, symName: __ZSt4swapIcSt11char_traitsIcESaIcEEvRNSt7__cxx1112basic_stringIT_T0_T1_EES9_, symObjAddr: 0x1A50, symBinAddr: 0x100006250, symSize: 0x28 }
  - { offset: 0x195C2, size: 0x8, addend: 0x0, symName: __ZSt13__adjust_heapIN9__gnu_cxx17__normal_iteratorIPNSt7__cxx1112basic_stringIcSt11char_traitsIcESaIcEEESt6vectorIS7_SaIS7_EEEElS7_NS0_5__ops15_Iter_comp_iterIZ4mainEUlRKS7_SG_E_EEEvT_T0_SK_T1_T2_, symObjAddr: 0x184C, symBinAddr: 0x10000604C, symSize: 0x204 }
  - { offset: 0x1968A, size: 0x8, addend: 0x0, symName: __ZN9__gnu_cxx5__ops14_Val_comp_iterIZ4mainEUlRKNSt7__cxx1112basic_stringIcSt11char_traitsIcESaIcEEES9_E_EclIS7_NS_17__normal_iteratorIPS7_St6vectorIS7_SaIS7_EEEEEEbRT_T0_, symObjAddr: 0x180C, symBinAddr: 0x10000600C, symSize: 0x40 }
  - { offset: 0x19709, size: 0x8, addend: 0x0, symName: __ZN9__gnu_cxx5__ops14_Val_comp_iterIZ4mainEUlRKNSt7__cxx1112basic_stringIcSt11char_traitsIcESaIcEEES9_E_EC1EONS0_15_Iter_comp_iterISA_EE, symObjAddr: 0x17E8, symBinAddr: 0x100005FE8, symSize: 0x24 }
  - { offset: 0x19740, size: 0x8, addend: 0x0, symName: __ZSt4moveIRN9__gnu_cxx5__ops15_Iter_comp_iterIZ4mainEUlRKNSt7__cxx1112basic_stringIcSt11char_traitsIcESaIcEEESA_E_EEEONSt16remove_referenceIT_E4typeEOSF_, symObjAddr: 0x17D4, symBinAddr: 0x100005FD4, symSize: 0x14 }
  - { offset: 0x19772, size: 0x8, addend: 0x0, symName: __ZSt22__copy_move_backward_aILb1EN9__gnu_cxx17__normal_iteratorIPNSt7__cxx1112basic_stringIcSt11char_traitsIcESaIcEEESt6vectorIS7_SaIS7_EEEESC_ET1_T0_SE_SD_, symObjAddr: 0x1774, symBinAddr: 0x100005F74, symSize: 0x60 }
  - { offset: 0x197DA, size: 0x8, addend: 0x0, symName: __ZSt12__miter_baseIN9__gnu_cxx17__normal_iteratorIPNSt7__cxx1112basic_stringIcSt11char_traitsIcESaIcEEESt6vectorIS7_SaIS7_EEEEET_SD_, symObjAddr: 0x1760, symBinAddr: 0x100005F60, symSize: 0x14 }
  - { offset: 0x1980D, size: 0x8, addend: 0x0, symName: __ZSt9iter_swapIN9__gnu_cxx17__normal_iteratorIPNSt7__cxx1112basic_stringIcSt11char_traitsIcESaIcEEESt6vectorIS7_SaIS7_EEEESC_EvT_T0_, symObjAddr: 0x171C, symBinAddr: 0x100005F1C, symSize: 0x44 }
  - { offset: 0x1985C, size: 0x8, addend: 0x0, symName: __ZN9__gnu_cxx17__normal_iteratorIPNSt7__cxx1112basic_stringIcSt11char_traitsIcESaIcEEESt6vectorIS6_SaIS6_EEEmmEv, symObjAddr: 0x16F4, symBinAddr: 0x100005EF4, symSize: 0x28 }
  - { offset: 0x19882, size: 0x8, addend: 0x0, symName: __ZSt10__pop_heapIN9__gnu_cxx17__normal_iteratorIPNSt7__cxx1112basic_stringIcSt11char_traitsIcESaIcEEESt6vectorIS7_SaIS7_EEEENS0_5__ops15_Iter_comp_iterIZ4mainEUlRKS7_SG_E_EEEvT_SJ_SJ_RT0_, symObjAddr: 0x1620, symBinAddr: 0x100005E20, symSize: 0xD4 }
  - { offset: 0x19922, size: 0x8, addend: 0x0, symName: __ZN9__gnu_cxxltIPNSt7__cxx1112basic_stringIcSt11char_traitsIcESaIcEEESt6vectorIS6_SaIS6_EEEEbRKNS_17__normal_iteratorIT_T0_EESG_, symObjAddr: 0x15DC, symBinAddr: 0x100005DDC, symSize: 0x44 }
  - { offset: 0x1996F, size: 0x8, addend: 0x0, symName: __ZSt11__make_heapIN9__gnu_cxx17__normal_iteratorIPNSt7__cxx1112basic_stringIcSt11char_traitsIcESaIcEEESt6vectorIS7_SaIS7_EEEENS0_5__ops15_Iter_comp_iterIZ4mainEUlRKS7_SG_E_EEEvT_SJ_RT0_, symObjAddr: 0x14A8, symBinAddr: 0x100005CA8, symSize: 0x134 }
  - { offset: 0x19A2A, size: 0x8, addend: 0x0, symName: __ZSt10_ConstructINSt7__cxx1112basic_stringIcSt11char_traitsIcESaIcEEEJEEvPT_DpOT0_, symObjAddr: 0x147C, symBinAddr: 0x100005C7C, symSize: 0x2C }
  - { offset: 0x19A6A, size: 0x8, addend: 0x0, symName: __ZNSt15__new_allocatorINSt7__cxx1112basic_stringIcSt11char_traitsIcESaIcEEEE8allocateEmPKv, symObjAddr: 0x1400, symBinAddr: 0x100005C00, symSize: 0x7C }
  - { offset: 0x19AF2, size: 0x8, addend: 0x0, symName: __ZSt25__unguarded_linear_insertIN9__gnu_cxx17__normal_iteratorIPNSt7__cxx1112basic_stringIcSt11char_traitsIcESaIcEEESt6vectorIS7_SaIS7_EEEENS0_5__ops14_Val_comp_iterIZ4mainEUlRKS7_SG_E_EEEvT_T0_, symObjAddr: 0x1344, symBinAddr: 0x100005B44, symSize: 0xBC }
  - { offset: 0x19B61, size: 0x8, addend: 0x0, symName: __ZN9__gnu_cxx5__ops15__val_comp_iterIZ4mainEUlRKNSt7__cxx1112basic_stringIcSt11char_traitsIcESaIcEEES9_E_EENS0_14_Val_comp_iterIT_EENS0_15_Iter_comp_iterISC_EE, symObjAddr: 0x130C, symBinAddr: 0x100005B0C, symSize: 0x38 }
  - { offset: 0x19B93, size: 0x8, addend: 0x0, symName: __ZSt13move_backwardIN9__gnu_cxx17__normal_iteratorIPNSt7__cxx1112basic_stringIcSt11char_traitsIcESaIcEEESt6vectorIS7_SaIS7_EEEESC_ET0_T_SE_SD_, symObjAddr: 0x12C4, symBinAddr: 0x100005AC4, symSize: 0x48 }
  - { offset: 0x19BF5, size: 0x8, addend: 0x0, symName: __ZNK9__gnu_cxx17__normal_iteratorIPNSt7__cxx1112basic_stringIcSt11char_traitsIcESaIcEEESt6vectorIS6_SaIS6_EEEdeEv, symObjAddr: 0x12AC, symBinAddr: 0x100005AAC, symSize: 0x18 }
  - { offset: 0x19C1F, size: 0x8, addend: 0x0, symName: __ZN9__gnu_cxx5__ops15_Iter_comp_iterIZ4mainEUlRKNSt7__cxx1112basic_stringIcSt11char_traitsIcESaIcEEES9_E_EclINS_17__normal_iteratorIPS7_St6vectorIS7_SaIS7_EEEESI_EEbT_T0_, symObjAddr: 0x1260, symBinAddr: 0x100005A60, symSize: 0x4C }
  - { offset: 0x19C7B, size: 0x8, addend: 0x0, symName: __ZN9__gnu_cxx17__normal_iteratorIPNSt7__cxx1112basic_stringIcSt11char_traitsIcESaIcEEESt6vectorIS6_SaIS6_EEEppEv, symObjAddr: 0x1238, symBinAddr: 0x100005A38, symSize: 0x28 }
  - { offset: 0x19CA1, size: 0x8, addend: 0x0, symName: __ZN9__gnu_cxxeqIPNSt7__cxx1112basic_stringIcSt11char_traitsIcESaIcEEESt6vectorIS6_SaIS6_EEEEbRKNS_17__normal_iteratorIT_T0_EESG_, symObjAddr: 0x11F4, symBinAddr: 0x1000059F4, symSize: 0x44 }
  - { offset: 0x19CEE, size: 0x8, addend: 0x0, symName: __ZSt21__unguarded_partitionIN9__gnu_cxx17__normal_iteratorIPNSt7__cxx1112basic_stringIcSt11char_traitsIcESaIcEEESt6vectorIS7_SaIS7_EEEENS0_5__ops15_Iter_comp_iterIZ4mainEUlRKS7_SG_E_EEET_SJ_SJ_SJ_T0_, symObjAddr: 0x113C, symBinAddr: 0x10000593C, symSize: 0xB8 }
  - { offset: 0x19D5D, size: 0x8, addend: 0x0, symName: __ZSt22__move_median_to_firstIN9__gnu_cxx17__normal_iteratorIPNSt7__cxx1112basic_stringIcSt11char_traitsIcESaIcEEESt6vectorIS7_SaIS7_EEEENS0_5__ops15_Iter_comp_iterIZ4mainEUlRKS7_SG_E_EEEvT_SJ_SJ_SJ_T0_, symObjAddr: 0x102C, symBinAddr: 0x10000582C, symSize: 0x110 }
  - { offset: 0x19DDC, size: 0x8, addend: 0x0, symName: __ZNK9__gnu_cxx17__normal_iteratorIPNSt7__cxx1112basic_stringIcSt11char_traitsIcESaIcEEESt6vectorIS6_SaIS6_EEEmiEl, symObjAddr: 0xFE8, symBinAddr: 0x1000057E8, symSize: 0x44 }
  - { offset: 0x19E13, size: 0x8, addend: 0x0, symName: __ZSt11__sort_heapIN9__gnu_cxx17__normal_iteratorIPNSt7__cxx1112basic_stringIcSt11char_traitsIcESaIcEEESt6vectorIS7_SaIS7_EEEENS0_5__ops15_Iter_comp_iterIZ4mainEUlRKS7_SG_E_EEEvT_SJ_RT0_, symObjAddr: 0xF80, symBinAddr: 0x100005780, symSize: 0x68 }
  - { offset: 0x19E71, size: 0x8, addend: 0x0, symName: __ZSt13__heap_selectIN9__gnu_cxx17__normal_iteratorIPNSt7__cxx1112basic_stringIcSt11char_traitsIcESaIcEEESt6vectorIS7_SaIS7_EEEENS0_5__ops15_Iter_comp_iterIZ4mainEUlRKS7_SG_E_EEEvT_SJ_SJ_T0_, symObjAddr: 0xEE4, symBinAddr: 0x1000056E4, symSize: 0x9C }
  - { offset: 0x19F04, size: 0x8, addend: 0x0, symName: __ZSt8_DestroyINSt7__cxx1112basic_stringIcSt11char_traitsIcESaIcEEEEvPT_, symObjAddr: 0xEC4, symBinAddr: 0x1000056C4, symSize: 0x20 }
  - { offset: 0x19F36, size: 0x8, addend: 0x0, symName: __ZNSt27__uninitialized_default_n_1ILb0EE18__uninit_default_nIPNSt7__cxx1112basic_stringIcSt11char_traitsIcESaIcEEEmEET_S9_T0_, symObjAddr: 0xE6C, symBinAddr: 0x10000566C, symSize: 0x58 }
  - { offset: 0x19F98, size: 0x8, addend: 0x0, symName: __ZNSt15__new_allocatorINSt7__cxx1112basic_stringIcSt11char_traitsIcESaIcEEEE10deallocateEPS5_m, symObjAddr: 0xE3C, symBinAddr: 0x10000563C, symSize: 0x30 }
  - { offset: 0x1A018, size: 0x8, addend: 0x0, symName: __ZSt26__unguarded_insertion_sortIN9__gnu_cxx17__normal_iteratorIPNSt7__cxx1112basic_stringIcSt11char_traitsIcESaIcEEESt6vectorIS7_SaIS7_EEEENS0_5__ops15_Iter_comp_iterIZ4mainEUlRKS7_SG_E_EEEvT_SJ_T0_, symObjAddr: 0xDD0, symBinAddr: 0x1000055D0, symSize: 0x6C }
  - { offset: 0x1A09A, size: 0x8, addend: 0x0, symName: __ZSt16__insertion_sortIN9__gnu_cxx17__normal_iteratorIPNSt7__cxx1112basic_stringIcSt11char_traitsIcESaIcEEESt6vectorIS7_SaIS7_EEEENS0_5__ops15_Iter_comp_iterIZ4mainEUlRKS7_SG_E_EEEvT_SJ_T0_, symObjAddr: 0xCB8, symBinAddr: 0x1000054B8, symSize: 0x118 }
  - { offset: 0x1A12D, size: 0x8, addend: 0x0, symName: __ZNK9__gnu_cxx17__normal_iteratorIPNSt7__cxx1112basic_stringIcSt11char_traitsIcESaIcEEESt6vectorIS6_SaIS6_EEEplEl, symObjAddr: 0xC78, symBinAddr: 0x100005478, symSize: 0x40 }
  - { offset: 0x1A164, size: 0x8, addend: 0x0, symName: __ZSt27__unguarded_partition_pivotIN9__gnu_cxx17__normal_iteratorIPNSt7__cxx1112basic_stringIcSt11char_traitsIcESaIcEEESt6vectorIS7_SaIS7_EEEENS0_5__ops15_Iter_comp_iterIZ4mainEUlRKS7_SG_E_EEET_SJ_SJ_T0_, symObjAddr: 0xBDC, symBinAddr: 0x1000053DC, symSize: 0x9C }
  - { offset: 0x1A1D3, size: 0x8, addend: 0x0, symName: __ZSt14__partial_sortIN9__gnu_cxx17__normal_iteratorIPNSt7__cxx1112basic_stringIcSt11char_traitsIcESaIcEEESt6vectorIS7_SaIS7_EEEENS0_5__ops15_Iter_comp_iterIZ4mainEUlRKS7_SG_E_EEEvT_SJ_SJ_T0_, symObjAddr: 0xB90, symBinAddr: 0x100005390, symSize: 0x4C }
  - { offset: 0x1A246, size: 0x8, addend: 0x0, symName: __ZNK9__gnu_cxx17__normal_iteratorIPNSt7__cxx1112basic_stringIcSt11char_traitsIcESaIcEEESt6vectorIS6_SaIS6_EEE4baseEv, symObjAddr: 0xB7C, symBinAddr: 0x10000537C, symSize: 0x14 }
  - { offset: 0x1A26C, size: 0x8, addend: 0x0, symName: __ZNSt12_Destroy_auxILb0EE9__destroyIPNSt7__cxx1112basic_stringIcSt11char_traitsIcESaIcEEEEEvT_S9_, symObjAddr: 0xB30, symBinAddr: 0x100005330, symSize: 0x4C }
  - { offset: 0x1A2AE, size: 0x8, addend: 0x0, symName: __ZSt25__uninitialized_default_nIPNSt7__cxx1112basic_stringIcSt11char_traitsIcESaIcEEEmET_S7_T0_, symObjAddr: 0xB04, symBinAddr: 0x100005304, symSize: 0x2C }
  - { offset: 0x1A342, size: 0x8, addend: 0x0, symName: __ZNSt12_Vector_baseINSt7__cxx1112basic_stringIcSt11char_traitsIcESaIcEEESaIS5_EE11_M_allocateEm, symObjAddr: 0xAB4, symBinAddr: 0x1000052B4, symSize: 0x50 }
  - { offset: 0x1A3C4, size: 0x8, addend: 0x0, symName: __ZNSt12_Vector_baseINSt7__cxx1112basic_stringIcSt11char_traitsIcESaIcEEESaIS5_EE17_Vector_impl_dataC2Ev, symObjAddr: 0xA88, symBinAddr: 0x100005288, symSize: 0x2C }
  - { offset: 0x1A417, size: 0x8, addend: 0x0, symName: __ZSt13__countl_zeroImEiT_, symObjAddr: 0xA34, symBinAddr: 0x100005234, symSize: 0x54 }
  - { offset: 0x1A4AC, size: 0x8, addend: 0x0, symName: __ZSt22__final_insertion_sortIN9__gnu_cxx17__normal_iteratorIPNSt7__cxx1112basic_stringIcSt11char_traitsIcESaIcEEESt6vectorIS7_SaIS7_EEEENS0_5__ops15_Iter_comp_iterIZ4mainEUlRKS7_SG_E_EEEvT_SJ_T0_, symObjAddr: 0x9A8, symBinAddr: 0x1000051A8, symSize: 0x8C }
  - { offset: 0x1A50A, size: 0x8, addend: 0x0, symName: __ZSt16__introsort_loopIN9__gnu_cxx17__normal_iteratorIPNSt7__cxx1112basic_stringIcSt11char_traitsIcESaIcEEESt6vectorIS7_SaIS7_EEEElNS0_5__ops15_Iter_comp_iterIZ4mainEUlRKS7_SG_E_EEEvT_SJ_T0_T1_, symObjAddr: 0x900, symBinAddr: 0x100005100, symSize: 0xA8 }
  - { offset: 0x1A5A6, size: 0x8, addend: 0x0, symName: __ZSt4__lgIlET_S0_, symObjAddr: 0x8DC, symBinAddr: 0x1000050DC, symSize: 0x24 }
  - { offset: 0x1A5D9, size: 0x8, addend: 0x0, symName: __ZN9__gnu_cxxmiIPNSt7__cxx1112basic_stringIcSt11char_traitsIcESaIcEEESt6vectorIS6_SaIS6_EEEENS_17__normal_iteratorIT_T0_E15difference_typeERKSE_SH_, symObjAddr: 0x89C, symBinAddr: 0x10000509C, symSize: 0x40 }
  - { offset: 0x1A626, size: 0x8, addend: 0x0, symName: __ZN9__gnu_cxxneIPNSt7__cxx1112basic_stringIcSt11char_traitsIcESaIcEEESt6vectorIS6_SaIS6_EEEEbRKNS_17__normal_iteratorIT_T0_EESG_, symObjAddr: 0x858, symBinAddr: 0x100005058, symSize: 0x44 }
  - { offset: 0x1A69A, size: 0x8, addend: 0x0, symName: __ZN9__gnu_cxx5__ops15_Iter_comp_iterIZ4mainEUlRKNSt7__cxx1112basic_stringIcSt11char_traitsIcESaIcEEES9_E_EC1ESA_, symObjAddr: 0x834, symBinAddr: 0x100005034, symSize: 0x24 }
  - { offset: 0x1A6CB, size: 0x8, addend: 0x0, symName: __ZSt4moveIRZ4mainEUlRKNSt7__cxx1112basic_stringIcSt11char_traitsIcESaIcEEES7_E_EONSt16remove_referenceIT_E4typeEOSB_, symObjAddr: 0x820, symBinAddr: 0x100005020, symSize: 0x14 }
  - { offset: 0x1A6FD, size: 0x8, addend: 0x0, symName: __ZSt8_DestroyIPNSt7__cxx1112basic_stringIcSt11char_traitsIcESaIcEEEEvT_S7_, symObjAddr: 0x7F8, symBinAddr: 0x100004FF8, symSize: 0x28 }
  - { offset: 0x1A73F, size: 0x8, addend: 0x0, symName: __ZSt27__uninitialized_default_n_aIPNSt7__cxx1112basic_stringIcSt11char_traitsIcESaIcEEEmS5_ET_S7_T0_RSaIT1_E, symObjAddr: 0x7D0, symBinAddr: 0x100004FD0, symSize: 0x28 }
  - { offset: 0x1A7A2, size: 0x8, addend: 0x0, symName: __ZNSt12_Vector_baseINSt7__cxx1112basic_stringIcSt11char_traitsIcESaIcEEESaIS5_EE13_M_deallocateEPS5_m, symObjAddr: 0x778, symBinAddr: 0x100004F78, symSize: 0x58 }
  - { offset: 0x1A824, size: 0x8, addend: 0x0, symName: __ZNSt12_Vector_baseINSt7__cxx1112basic_stringIcSt11char_traitsIcESaIcEEESaIS5_EE17_M_create_storageEm, symObjAddr: 0x718, symBinAddr: 0x100004F18, symSize: 0x60 }
  - { offset: 0x1A886, size: 0x8, addend: 0x0, symName: __ZNSt12_Vector_baseINSt7__cxx1112basic_stringIcSt11char_traitsIcESaIcEEESaIS5_EE12_Vector_implC1ERKS6_, symObjAddr: 0x6CC, symBinAddr: 0x100004ECC, symSize: 0x4C }
  - { offset: 0x1A92C, size: 0x8, addend: 0x0, symName: __ZNSt6vectorINSt7__cxx1112basic_stringIcSt11char_traitsIcESaIcEEESaIS5_EE11_S_max_sizeERKS6_, symObjAddr: 0x678, symBinAddr: 0x100004E78, symSize: 0x54 }
  - { offset: 0x1A9E3, size: 0x8, addend: 0x0, symName: __ZSt11__bit_widthImEiT_, symObjAddr: 0x648, symBinAddr: 0x100004E48, symSize: 0x30 }
  - { offset: 0x1AA27, size: 0x8, addend: 0x0, symName: __ZSt6__sortIN9__gnu_cxx17__normal_iteratorIPNSt7__cxx1112basic_stringIcSt11char_traitsIcESaIcEEESt6vectorIS7_SaIS7_EEEENS0_5__ops15_Iter_comp_iterIZ4mainEUlRKS7_SG_E_EEEvT_SJ_T0_, symObjAddr: 0x5D8, symBinAddr: 0x100004DD8, symSize: 0x70 }
  - { offset: 0x1AA85, size: 0x8, addend: 0x0, symName: __ZN9__gnu_cxx5__ops16__iter_comp_iterIZ4mainEUlRKNSt7__cxx1112basic_stringIcSt11char_traitsIcESaIcEEES9_E_EENS0_15_Iter_comp_iterIT_EESC_, symObjAddr: 0x5A0, symBinAddr: 0x100004DA0, symSize: 0x38 }
  - { offset: 0x1AAE3, size: 0x8, addend: 0x0, symName: __ZN9__gnu_cxx17__normal_iteratorIPNSt7__cxx1112basic_stringIcSt11char_traitsIcESaIcEEESt6vectorIS6_SaIS6_EEEC1ERKS7_, symObjAddr: 0x578, symBinAddr: 0x100004D78, symSize: 0x28 }
  - { offset: 0x1AB4D, size: 0x8, addend: 0x0, symName: __ZNSt12_Vector_baseINSt7__cxx1112basic_stringIcSt11char_traitsIcESaIcEEESaIS5_EE19_M_get_Tp_allocatorEv, symObjAddr: 0x564, symBinAddr: 0x100004D64, symSize: 0x14 }
  - { offset: 0x1AB77, size: 0x8, addend: 0x0, symName: __ZNSt6vectorINSt7__cxx1112basic_stringIcSt11char_traitsIcESaIcEEESaIS5_EE21_M_default_initializeEm, symObjAddr: 0x514, symBinAddr: 0x100004D14, symSize: 0x50 }
  - { offset: 0x1ABD6, size: 0x8, addend: 0x0, symName: __ZNSt12_Vector_baseINSt7__cxx1112basic_stringIcSt11char_traitsIcESaIcEEESaIS5_EED2Ev, symObjAddr: 0x4C4, symBinAddr: 0x100004CC4, symSize: 0x50 }
  - { offset: 0x1AC32, size: 0x8, addend: 0x0, symName: __ZNSt12_Vector_baseINSt7__cxx1112basic_stringIcSt11char_traitsIcESaIcEEESaIS5_EEC2EmRKS6_, symObjAddr: 0x470, symBinAddr: 0x100004C70, symSize: 0x54 }
  - { offset: 0x1AC91, size: 0x8, addend: 0x0, symName: __ZNSt12_Vector_baseINSt7__cxx1112basic_stringIcSt11char_traitsIcESaIcEEESaIS5_EE12_Vector_implD1Ev, symObjAddr: 0x444, symBinAddr: 0x100004C44, symSize: 0x2C }
  - { offset: 0x1ACD6, size: 0x8, addend: 0x0, symName: __ZNSt6vectorINSt7__cxx1112basic_stringIcSt11char_traitsIcESaIcEEESaIS5_EE17_S_check_init_lenEmRKS6_, symObjAddr: 0x3C0, symBinAddr: 0x100004BC0, symSize: 0x84 }
  - { offset: 0x1ADB0, size: 0x8, addend: 0x0, symName: __ZNSt15__new_allocatorINSt7__cxx1112basic_stringIcSt11char_traitsIcESaIcEEEED2Ev, symObjAddr: 0x3AC, symBinAddr: 0x100004BAC, symSize: 0x14 }
  - { offset: 0x1ADE8, size: 0x8, addend: 0x0, symName: __ZSt4sortIN9__gnu_cxx17__normal_iteratorIPNSt7__cxx1112basic_stringIcSt11char_traitsIcESaIcEEESt6vectorIS7_SaIS7_EEEEZ4mainEUlRKS7_SE_E_EvT_SG_T0_, symObjAddr: 0x36C, symBinAddr: 0x100004B6C, symSize: 0x40 }
  - { offset: 0x1AE4A, size: 0x8, addend: 0x0, symName: __ZNSt6vectorINSt7__cxx1112basic_stringIcSt11char_traitsIcESaIcEEESaIS5_EE3endEv, symObjAddr: 0x344, symBinAddr: 0x100004B44, symSize: 0x28 }
  - { offset: 0x1AE74, size: 0x8, addend: 0x0, symName: __ZNSt6vectorINSt7__cxx1112basic_stringIcSt11char_traitsIcESaIcEEESaIS5_EE5beginEv, symObjAddr: 0x320, symBinAddr: 0x100004B20, symSize: 0x24 }
  - { offset: 0x1AE9E, size: 0x8, addend: 0x0, symName: __ZNSt6vectorINSt7__cxx1112basic_stringIcSt11char_traitsIcESaIcEEESaIS5_EEixEm, symObjAddr: 0x2F8, symBinAddr: 0x100004AF8, symSize: 0x28 }
  - { offset: 0x1AEFD, size: 0x8, addend: 0x0, symName: __ZNSt6vectorINSt7__cxx1112basic_stringIcSt11char_traitsIcESaIcEEESaIS5_EED1Ev, symObjAddr: 0x29C, symBinAddr: 0x100004A9C, symSize: 0x5C }
  - { offset: 0x1AF8F, size: 0x8, addend: 0x0, symName: __ZNSt6vectorINSt7__cxx1112basic_stringIcSt11char_traitsIcESaIcEEESaIS5_EEC1EmRKS6_, symObjAddr: 0x234, symBinAddr: 0x100004A34, symSize: 0x68 }
  - { offset: 0x1AFF9, size: 0x8, addend: 0x0, symName: __ZSt11__addressofINSt7__cxx1112basic_stringIcSt11char_traitsIcESaIcEEEEPT_RS6_, symObjAddr: 0x220, symBinAddr: 0x100004A20, symSize: 0x14 }
  - { offset: 0x1B031, size: 0x8, addend: 0x0, symName: __ZSt4moveIRNSt7__cxx1112basic_stringIcSt11char_traitsIcESaIcEEEEONSt16remove_referenceIT_E4typeEOS8_, symObjAddr: 0x20C, symBinAddr: 0x100004A0C, symSize: 0x14 }
  - { offset: 0x1B06A, size: 0x8, addend: 0x0, symName: _main, symObjAddr: 0x94, symBinAddr: 0x100004894, symSize: 0x178 }
  - { offset: 0x1B104, size: 0x8, addend: 0x0, symName: __ZZ4mainENKUlRKNSt7__cxx1112basic_stringIcSt11char_traitsIcESaIcEEES6_E_clES6_S6_, symObjAddr: 0x50, symBinAddr: 0x100004850, symSize: 0x44 }
  - { offset: 0x1B22B, size: 0x8, addend: 0x0, symName: __ZSt3minImERKT_S2_S2_, symObjAddr: 0x18, symBinAddr: 0x100004818, symSize: 0x38 }
  - { offset: 0x1B278, size: 0x8, addend: 0x0, symName: __ZnwmPv, symObjAddr: 0x0, symBinAddr: 0x100004800, symSize: 0x18 }
...
